libepubgen-0.1.so.1 libepubgen-0.1-1 #MINVER#
 _ZN10libepubgen17EPUBTextGenerator10closeFrameEv@Base 0.1.0
 _ZN10libepubgen17EPUBTextGenerator10closeGroupEv@Base 0.1.0
 _ZN10libepubgen17EPUBTextGenerator10closeTableEv@Base 0.1.0
 _ZN10libepubgen17EPUBTextGenerator10insertTextERKN10librevenge10RVNGStringE@Base 0.1.0
 _ZN10libepubgen17EPUBTextGenerator10openFooterERKN10librevenge16RVNGPropertyListE@Base 0.1.0
 _ZN10libepubgen17EPUBTextGenerator10openHeaderERKN10librevenge16RVNGPropertyListE@Base 0.1.0
 _ZN10libepubgen17EPUBTextGenerator11closeFooterEv@Base 0.1.0
 _ZN10libepubgen17EPUBTextGenerator11closeHeaderEv@Base 0.1.0
 _ZN10libepubgen17EPUBTextGenerator11drawEllipseERKN10librevenge16RVNGPropertyListE@Base 0.1.0
 _ZN10libepubgen17EPUBTextGenerator11drawPolygonERKN10librevenge16RVNGPropertyListE@Base 0.1.0
 _ZN10libepubgen17EPUBTextGenerator11endDocumentEv@Base 0.1.0
 _ZN10libepubgen17EPUBTextGenerator11insertFieldERKN10librevenge16RVNGPropertyListE@Base 0.1.0
 _ZN10libepubgen17EPUBTextGenerator11insertSpaceEv@Base 0.1.0
 _ZN10libepubgen17EPUBTextGenerator11openCommentERKN10librevenge16RVNGPropertyListE@Base 0.1.0
 _ZN10libepubgen17EPUBTextGenerator11openEndnoteERKN10librevenge16RVNGPropertyListE@Base 0.1.0
 _ZN10libepubgen17EPUBTextGenerator11openSectionERKN10librevenge16RVNGPropertyListE@Base 0.1.0
 _ZN10libepubgen17EPUBTextGenerator11openTextBoxERKN10librevenge16RVNGPropertyListE@Base 0.1.0
 _ZN10libepubgen17EPUBTextGenerator12closeCommentEv@Base 0.1.0
 _ZN10libepubgen17EPUBTextGenerator12closeEndnoteEv@Base 0.1.0
 _ZN10libepubgen17EPUBTextGenerator12closeSectionEv@Base 0.1.0
 _ZN10libepubgen17EPUBTextGenerator12closeTextBoxEv@Base 0.1.0
 _ZN10libepubgen17EPUBTextGenerator12drawPolylineERKN10librevenge16RVNGPropertyListE@Base 0.1.0
 _ZN10libepubgen17EPUBTextGenerator12openFootnoteERKN10librevenge16RVNGPropertyListE@Base 0.1.0
 _ZN10libepubgen17EPUBTextGenerator12openPageSpanERKN10librevenge16RVNGPropertyListE@Base 0.1.0
 _ZN10libepubgen17EPUBTextGenerator12openTableRowERKN10librevenge16RVNGPropertyListE@Base 0.1.0
 _ZN10libepubgen17EPUBTextGenerator12setSplitSizeEj@Base 0.1.0
 _ZN10libepubgen17EPUBTextGenerator13closeFootnoteEv@Base 0.1.0
 _ZN10libepubgen17EPUBTextGenerator13closePageSpanEv@Base 0.1.0
 _ZN10libepubgen17EPUBTextGenerator13closeTableRowEv@Base 0.1.0
 _ZN10libepubgen17EPUBTextGenerator13drawConnectorERKN10librevenge16RVNGPropertyListE@Base 0.1.0
 _ZN10libepubgen17EPUBTextGenerator13drawRectangleERKN10librevenge16RVNGPropertyListE@Base 0.1.0
 _ZN10libepubgen17EPUBTextGenerator13openParagraphERKN10librevenge16RVNGPropertyListE@Base 0.1.0
 _ZN10libepubgen17EPUBTextGenerator13openTableCellERKN10librevenge16RVNGPropertyListE@Base 0.1.0
 _ZN10libepubgen17EPUBTextGenerator13startDocumentERKN10librevenge16RVNGPropertyListE@Base 0.1.0
 _ZN10libepubgen17EPUBTextGenerator14closeParagraphEv@Base 0.1.0
 _ZN10libepubgen17EPUBTextGenerator14closeTableCellEv@Base 0.1.0
 _ZN10libepubgen17EPUBTextGenerator14insertEquationERKN10librevenge16RVNGPropertyListE@Base 0.1.0
 _ZN10libepubgen17EPUBTextGenerator15definePageStyleERKN10librevenge16RVNGPropertyListE@Base 0.1.0
 _ZN10libepubgen17EPUBTextGenerator15insertLineBreakEv@Base 0.1.0
 _ZN10libepubgen17EPUBTextGenerator15openListElementERKN10librevenge16RVNGPropertyListE@Base 0.1.0
 _ZN10libepubgen17EPUBTextGenerator16closeListElementEv@Base 0.1.0
 _ZN10libepubgen17EPUBTextGenerator18defineEmbeddedFontERKN10librevenge16RVNGPropertyListE@Base 0.1.0
 _ZN10libepubgen17EPUBTextGenerator18defineGraphicStyleERKN10librevenge16RVNGPropertyListE@Base 0.1.0
 _ZN10libepubgen17EPUBTextGenerator18defineSectionStyleERKN10librevenge16RVNGPropertyListE@Base 0.1.0
 _ZN10libepubgen17EPUBTextGenerator18insertBinaryObjectERKN10librevenge16RVNGPropertyListE@Base 0.1.0
 _ZN10libepubgen17EPUBTextGenerator19setDocumentMetaDataERKN10librevenge16RVNGPropertyListE@Base 0.1.0
 _ZN10libepubgen17EPUBTextGenerator20defineCharacterStyleERKN10librevenge16RVNGPropertyListE@Base 0.1.0
 _ZN10libepubgen17EPUBTextGenerator20defineParagraphStyleERKN10librevenge16RVNGPropertyListE@Base 0.1.0
 _ZN10libepubgen17EPUBTextGenerator20openOrderedListLevelERKN10librevenge16RVNGPropertyListE@Base 0.1.0
 _ZN10libepubgen17EPUBTextGenerator20setSplitHeadingLevelEj@Base 0.1.0
 _ZN10libepubgen17EPUBTextGenerator21closeOrderedListLevelEv@Base 0.1.0
 _ZN10libepubgen17EPUBTextGenerator22insertCoveredTableCellERKN10librevenge16RVNGPropertyListE@Base 0.1.0
 _ZN10libepubgen17EPUBTextGenerator22openUnorderedListLevelERKN10librevenge16RVNGPropertyListE@Base 0.1.0
 _ZN10libepubgen17EPUBTextGenerator23closeUnorderedListLevelEv@Base 0.1.0
 _ZN10libepubgen17EPUBTextGenerator28registerEmbeddedImageHandlerERKN10librevenge10RVNGStringEPFbRKNS1_14RVNGBinaryDataERS5_RNS_13EPUBImageTypeEE@Base 0.1.0
 _ZN10libepubgen17EPUBTextGenerator29registerEmbeddedObjectHandlerERKN10librevenge10RVNGStringEPFbRKNS1_14RVNGBinaryDataERKNS_20EPUBEmbeddingContactEE@Base 0.1.0
 _ZN10libepubgen17EPUBTextGenerator4Impl11endHtmlFileEv@Base 0.1.0
 _ZN10libepubgen17EPUBTextGenerator4Impl13startHtmlFileEv@Base 0.1.0
 _ZN10libepubgen17EPUBTextGenerator4ImplC1EPNS_11EPUBPackageEi@Base 0.1.0
 _ZN10libepubgen17EPUBTextGenerator4ImplC2EPNS_11EPUBPackageEi@Base 0.1.0
 _ZN10libepubgen17EPUBTextGenerator4ImplD0Ev@Base 0.1.0
 _ZN10libepubgen17EPUBTextGenerator4ImplD1Ev@Base 0.1.0
 _ZN10libepubgen17EPUBTextGenerator4ImplD2Ev@Base 0.1.0
 _ZN10libepubgen17EPUBTextGenerator8drawPathERKN10librevenge16RVNGPropertyListE@Base 0.1.0
 _ZN10libepubgen17EPUBTextGenerator8openLinkERKN10librevenge16RVNGPropertyListE@Base 0.1.0
 _ZN10libepubgen17EPUBTextGenerator8openSpanERKN10librevenge16RVNGPropertyListE@Base 0.1.0
 _ZN10libepubgen17EPUBTextGenerator9closeLinkEv@Base 0.1.0
 _ZN10libepubgen17EPUBTextGenerator9closeSpanEv@Base 0.1.0
 _ZN10libepubgen17EPUBTextGenerator9insertTabEv@Base 0.1.0
 _ZN10libepubgen17EPUBTextGenerator9openFrameERKN10librevenge16RVNGPropertyListE@Base 0.1.0
 _ZN10libepubgen17EPUBTextGenerator9openGroupERKN10librevenge16RVNGPropertyListE@Base 0.1.0
 _ZN10libepubgen17EPUBTextGenerator9openTableERKN10librevenge16RVNGPropertyListE@Base 0.1.0
 _ZN10libepubgen17EPUBTextGenerator9setOptionEii@Base 0.1.0
 _ZN10libepubgen17EPUBTextGeneratorC1EPNS_11EPUBPackageEi@Base 0.1.0
 _ZN10libepubgen17EPUBTextGeneratorC1ERNS_20EPUBEmbeddingContactEPNS_11EPUBPackageE@Base 0.1.0
 _ZN10libepubgen17EPUBTextGeneratorC2EPNS_11EPUBPackageEi@Base 0.1.0
 _ZN10libepubgen17EPUBTextGeneratorC2ERNS_20EPUBEmbeddingContactEPNS_11EPUBPackageE@Base 0.1.0
 _ZN10libepubgen17EPUBTextGeneratorD0Ev@Base 0.1.0
 _ZN10libepubgen17EPUBTextGeneratorD1Ev@Base 0.1.0
 _ZN10libepubgen17EPUBTextGeneratorD2Ev@Base 0.1.0
 _ZN10libepubgen20EPUBDrawingGenerator10closeGroupEv@Base 0.1.0
 _ZN10libepubgen20EPUBDrawingGenerator10insertTextERKN10librevenge10RVNGStringE@Base 0.1.0
 _ZN10libepubgen20EPUBDrawingGenerator10startLayerERKN10librevenge16RVNGPropertyListE@Base 0.1.0
 _ZN10libepubgen20EPUBDrawingGenerator11drawEllipseERKN10librevenge16RVNGPropertyListE@Base 0.1.0
 _ZN10libepubgen20EPUBDrawingGenerator11drawPolygonERKN10librevenge16RVNGPropertyListE@Base 0.1.0
 _ZN10libepubgen20EPUBDrawingGenerator11endDocumentEv@Base 0.1.0
 _ZN10libepubgen20EPUBDrawingGenerator11insertFieldERKN10librevenge16RVNGPropertyListE@Base 0.1.0
 _ZN10libepubgen20EPUBDrawingGenerator11insertSpaceEv@Base 0.1.0
 _ZN10libepubgen20EPUBDrawingGenerator12drawPolylineERKN10librevenge16RVNGPropertyListE@Base 0.1.0
 _ZN10libepubgen20EPUBDrawingGenerator12openTableRowERKN10librevenge16RVNGPropertyListE@Base 0.1.0
 _ZN10libepubgen20EPUBDrawingGenerator12setSplitSizeEj@Base 0.1.0
 _ZN10libepubgen20EPUBDrawingGenerator13closeTableRowEv@Base 0.1.0
 _ZN10libepubgen20EPUBDrawingGenerator13drawConnectorERKN10librevenge16RVNGPropertyListE@Base 0.1.0
 _ZN10libepubgen20EPUBDrawingGenerator13drawRectangleERKN10librevenge16RVNGPropertyListE@Base 0.1.0
 _ZN10libepubgen20EPUBDrawingGenerator13endMasterPageEv@Base 0.1.0
 _ZN10libepubgen20EPUBDrawingGenerator13endTextObjectEv@Base 0.1.0
 _ZN10libepubgen20EPUBDrawingGenerator13openParagraphERKN10librevenge16RVNGPropertyListE@Base 0.1.0
 _ZN10libepubgen20EPUBDrawingGenerator13openTableCellERKN10librevenge16RVNGPropertyListE@Base 0.1.0
 _ZN10libepubgen20EPUBDrawingGenerator13startDocumentERKN10librevenge16RVNGPropertyListE@Base 0.1.0
 _ZN10libepubgen20EPUBDrawingGenerator14closeParagraphEv@Base 0.1.0
 _ZN10libepubgen20EPUBDrawingGenerator14closeTableCellEv@Base 0.1.0
 _ZN10libepubgen20EPUBDrawingGenerator14endTableObjectEv@Base 0.1.0
 _ZN10libepubgen20EPUBDrawingGenerator15insertLineBreakEv@Base 0.1.0
 _ZN10libepubgen20EPUBDrawingGenerator15openListElementERKN10librevenge16RVNGPropertyListE@Base 0.1.0
 _ZN10libepubgen20EPUBDrawingGenerator15startMasterPageERKN10librevenge16RVNGPropertyListE@Base 0.1.0
 _ZN10libepubgen20EPUBDrawingGenerator15startTextObjectERKN10librevenge16RVNGPropertyListE@Base 0.1.0
 _ZN10libepubgen20EPUBDrawingGenerator16closeListElementEv@Base 0.1.0
 _ZN10libepubgen20EPUBDrawingGenerator16startTableObjectERKN10librevenge16RVNGPropertyListE@Base 0.1.0
 _ZN10libepubgen20EPUBDrawingGenerator17drawGraphicObjectERKN10librevenge16RVNGPropertyListE@Base 0.1.0
 _ZN10libepubgen20EPUBDrawingGenerator18defineEmbeddedFontERKN10librevenge16RVNGPropertyListE@Base 0.1.0
 _ZN10libepubgen20EPUBDrawingGenerator19endEmbeddedGraphicsEv@Base 0.1.0
 _ZN10libepubgen20EPUBDrawingGenerator19setDocumentMetaDataERKN10librevenge16RVNGPropertyListE@Base 0.1.0
 _ZN10libepubgen20EPUBDrawingGenerator20defineCharacterStyleERKN10librevenge16RVNGPropertyListE@Base 0.1.0
 _ZN10libepubgen20EPUBDrawingGenerator20defineParagraphStyleERKN10librevenge16RVNGPropertyListE@Base 0.1.0
 _ZN10libepubgen20EPUBDrawingGenerator20openOrderedListLevelERKN10librevenge16RVNGPropertyListE@Base 0.1.0
 _ZN10libepubgen20EPUBDrawingGenerator20setSplitHeadingLevelEj@Base 0.1.0
 _ZN10libepubgen20EPUBDrawingGenerator21closeOrderedListLevelEv@Base 0.1.0
 _ZN10libepubgen20EPUBDrawingGenerator21startEmbeddedGraphicsERKN10librevenge16RVNGPropertyListE@Base 0.1.0
 _ZN10libepubgen20EPUBDrawingGenerator22insertCoveredTableCellERKN10librevenge16RVNGPropertyListE@Base 0.1.0
 _ZN10libepubgen20EPUBDrawingGenerator22openUnorderedListLevelERKN10librevenge16RVNGPropertyListE@Base 0.1.0
 _ZN10libepubgen20EPUBDrawingGenerator23closeUnorderedListLevelEv@Base 0.1.0
 _ZN10libepubgen20EPUBDrawingGenerator28registerEmbeddedImageHandlerERKN10librevenge10RVNGStringEPFbRKNS1_14RVNGBinaryDataERS5_RNS_13EPUBImageTypeEE@Base 0.1.0
 _ZN10libepubgen20EPUBDrawingGenerator29registerEmbeddedObjectHandlerERKN10librevenge10RVNGStringEPFbRKNS1_14RVNGBinaryDataERKNS_20EPUBEmbeddingContactEE@Base 0.1.0
 _ZN10libepubgen20EPUBDrawingGenerator4ImplC1EPNS_11EPUBPackageEi@Base 0.1.0
 _ZN10libepubgen20EPUBDrawingGenerator4ImplC2EPNS_11EPUBPackageEi@Base 0.1.0
 _ZN10libepubgen20EPUBDrawingGenerator4ImplD0Ev@Base 0.1.0
 _ZN10libepubgen20EPUBDrawingGenerator4ImplD1Ev@Base 0.1.0
 _ZN10libepubgen20EPUBDrawingGenerator4ImplD2Ev@Base 0.1.0
 _ZN10libepubgen20EPUBDrawingGenerator7endPageEv@Base 0.1.0
 _ZN10libepubgen20EPUBDrawingGenerator8drawPathERKN10librevenge16RVNGPropertyListE@Base 0.1.0
 _ZN10libepubgen20EPUBDrawingGenerator8endLayerEv@Base 0.1.0
 _ZN10libepubgen20EPUBDrawingGenerator8openLinkERKN10librevenge16RVNGPropertyListE@Base 0.1.0
 _ZN10libepubgen20EPUBDrawingGenerator8openSpanERKN10librevenge16RVNGPropertyListE@Base 0.1.0
 _ZN10libepubgen20EPUBDrawingGenerator8setStyleERKN10librevenge16RVNGPropertyListE@Base 0.1.0
 _ZN10libepubgen20EPUBDrawingGenerator9closeLinkEv@Base 0.1.0
 _ZN10libepubgen20EPUBDrawingGenerator9closeSpanEv@Base 0.1.0
 _ZN10libepubgen20EPUBDrawingGenerator9insertTabEv@Base 0.1.0
 _ZN10libepubgen20EPUBDrawingGenerator9openGroupERKN10librevenge16RVNGPropertyListE@Base 0.1.0
 _ZN10libepubgen20EPUBDrawingGenerator9setOptionEii@Base 0.1.0
 _ZN10libepubgen20EPUBDrawingGenerator9startPageERKN10librevenge16RVNGPropertyListE@Base 0.1.0
 _ZN10libepubgen20EPUBDrawingGeneratorC1EPNS_11EPUBPackageEi@Base 0.1.0
 _ZN10libepubgen20EPUBDrawingGeneratorC1ERNS_20EPUBEmbeddingContactEPNS_11EPUBPackageE@Base 0.1.0
 _ZN10libepubgen20EPUBDrawingGeneratorC2EPNS_11EPUBPackageEi@Base 0.1.0
 _ZN10libepubgen20EPUBDrawingGeneratorC2ERNS_20EPUBEmbeddingContactEPNS_11EPUBPackageE@Base 0.1.0
 _ZN10libepubgen20EPUBDrawingGeneratorD0Ev@Base 0.1.0
 _ZN10libepubgen20EPUBDrawingGeneratorD1Ev@Base 0.1.0
 _ZN10libepubgen20EPUBDrawingGeneratorD2Ev@Base 0.1.0
 _ZN10libepubgen25EPUBPresentationGenerator10closeChartEv@Base 0.1.0
 _ZN10libepubgen25EPUBPresentationGenerator10closeGroupEv@Base 0.1.0
 _ZN10libepubgen25EPUBPresentationGenerator10endCommentEv@Base 0.1.0
 _ZN10libepubgen25EPUBPresentationGenerator10insertTextERKN10librevenge10RVNGStringE@Base 0.1.0
 _ZN10libepubgen25EPUBPresentationGenerator10startLayerERKN10librevenge16RVNGPropertyListE@Base 0.1.0
 _ZN10libepubgen25EPUBPresentationGenerator10startNotesERKN10librevenge16RVNGPropertyListE@Base 0.1.0
 _ZN10libepubgen25EPUBPresentationGenerator10startSlideERKN10librevenge16RVNGPropertyListE@Base 0.1.0
 _ZN10libepubgen25EPUBPresentationGenerator11drawEllipseERKN10librevenge16RVNGPropertyListE@Base 0.1.0
 _ZN10libepubgen25EPUBPresentationGenerator11drawPolygonERKN10librevenge16RVNGPropertyListE@Base 0.1.0
 _ZN10libepubgen25EPUBPresentationGenerator11endDocumentEv@Base 0.1.0
 _ZN10libepubgen25EPUBPresentationGenerator11insertFieldERKN10librevenge16RVNGPropertyListE@Base 0.1.0
 _ZN10libepubgen25EPUBPresentationGenerator11insertSpaceEv@Base 0.1.0
 _ZN10libepubgen25EPUBPresentationGenerator12drawPolylineERKN10librevenge16RVNGPropertyListE@Base 0.1.0
 _ZN10libepubgen25EPUBPresentationGenerator12insertEffectERKN10librevenge16RVNGPropertyListE@Base 0.1.0
 _ZN10libepubgen25EPUBPresentationGenerator12openTableRowERKN10librevenge16RVNGPropertyListE@Base 0.1.0
 _ZN10libepubgen25EPUBPresentationGenerator12setSplitSizeEj@Base 0.1.0
 _ZN10libepubgen25EPUBPresentationGenerator12startCommentERKN10librevenge16RVNGPropertyListE@Base 0.1.0
 _ZN10libepubgen25EPUBPresentationGenerator13closeTableRowEv@Base 0.1.0
 _ZN10libepubgen25EPUBPresentationGenerator13drawConnectorERKN10librevenge16RVNGPropertyListE@Base 0.1.0
 _ZN10libepubgen25EPUBPresentationGenerator13drawRectangleERKN10librevenge16RVNGPropertyListE@Base 0.1.0
 _ZN10libepubgen25EPUBPresentationGenerator13endTextObjectEv@Base 0.1.0
 _ZN10libepubgen25EPUBPresentationGenerator13openParagraphERKN10librevenge16RVNGPropertyListE@Base 0.1.0
 _ZN10libepubgen25EPUBPresentationGenerator13openTableCellERKN10librevenge16RVNGPropertyListE@Base 0.1.0
 _ZN10libepubgen25EPUBPresentationGenerator13startDocumentERKN10librevenge16RVNGPropertyListE@Base 0.1.0
 _ZN10libepubgen25EPUBPresentationGenerator14closeParagraphEv@Base 0.1.0
 _ZN10libepubgen25EPUBPresentationGenerator14closeTableCellEv@Base 0.1.0
 _ZN10libepubgen25EPUBPresentationGenerator14endMasterSlideEv@Base 0.1.0
 _ZN10libepubgen25EPUBPresentationGenerator14endTableObjectEv@Base 0.1.0
 _ZN10libepubgen25EPUBPresentationGenerator15insertAnimationERKN10librevenge16RVNGPropertyListE@Base 0.1.0
 _ZN10libepubgen25EPUBPresentationGenerator15insertChartAxisERKN10librevenge16RVNGPropertyListE@Base 0.1.0
 _ZN10libepubgen25EPUBPresentationGenerator15insertLineBreakEv@Base 0.1.0
 _ZN10libepubgen25EPUBPresentationGenerator15openChartSeriesERKN10librevenge16RVNGPropertyListE@Base 0.1.0
 _ZN10libepubgen25EPUBPresentationGenerator15openListElementERKN10librevenge16RVNGPropertyListE@Base 0.1.0
 _ZN10libepubgen25EPUBPresentationGenerator15startTextObjectERKN10librevenge16RVNGPropertyListE@Base 0.1.0
 _ZN10libepubgen25EPUBPresentationGenerator16closeChartSeriesEv@Base 0.1.0
 _ZN10libepubgen25EPUBPresentationGenerator16closeListElementEv@Base 0.1.0
 _ZN10libepubgen25EPUBPresentationGenerator16defineChartStyleERKN10librevenge16RVNGPropertyListE@Base 0.1.0
 _ZN10libepubgen25EPUBPresentationGenerator16startMasterSlideERKN10librevenge16RVNGPropertyListE@Base 0.1.0
 _ZN10libepubgen25EPUBPresentationGenerator16startTableObjectERKN10librevenge16RVNGPropertyListE@Base 0.1.0
 _ZN10libepubgen25EPUBPresentationGenerator17drawGraphicObjectERKN10librevenge16RVNGPropertyListE@Base 0.1.0
 _ZN10libepubgen25EPUBPresentationGenerator17openChartPlotAreaERKN10librevenge16RVNGPropertyListE@Base 0.1.0
 _ZN10libepubgen25EPUBPresentationGenerator18closeChartPlotAreaEv@Base 0.1.0
 _ZN10libepubgen25EPUBPresentationGenerator18defineEmbeddedFontERKN10librevenge16RVNGPropertyListE@Base 0.1.0
 _ZN10libepubgen25EPUBPresentationGenerator18openAnimationGroupERKN10librevenge16RVNGPropertyListE@Base 0.1.0
 _ZN10libepubgen25EPUBPresentationGenerator18setSlideTransitionERKN10librevenge16RVNGPropertyListE@Base 0.1.0
 _ZN10libepubgen25EPUBPresentationGenerator19closeAnimationGroupEv@Base 0.1.0
 _ZN10libepubgen25EPUBPresentationGenerator19endEmbeddedGraphicsEv@Base 0.1.0
 _ZN10libepubgen25EPUBPresentationGenerator19openChartTextObjectERKN10librevenge16RVNGPropertyListE@Base 0.1.0
 _ZN10libepubgen25EPUBPresentationGenerator19setDocumentMetaDataERKN10librevenge16RVNGPropertyListE@Base 0.1.0
 _ZN10libepubgen25EPUBPresentationGenerator20closeChartTextObjectEv@Base 0.1.0
 _ZN10libepubgen25EPUBPresentationGenerator20defineCharacterStyleERKN10librevenge16RVNGPropertyListE@Base 0.1.0
 _ZN10libepubgen25EPUBPresentationGenerator20defineParagraphStyleERKN10librevenge16RVNGPropertyListE@Base 0.1.0
 _ZN10libepubgen25EPUBPresentationGenerator20insertColorAnimationERKN10librevenge16RVNGPropertyListE@Base 0.1.0
 _ZN10libepubgen25EPUBPresentationGenerator20openOrderedListLevelERKN10librevenge16RVNGPropertyListE@Base 0.1.0
 _ZN10libepubgen25EPUBPresentationGenerator20setSplitHeadingLevelEj@Base 0.1.0
 _ZN10libepubgen25EPUBPresentationGenerator21closeOrderedListLevelEv@Base 0.1.0
 _ZN10libepubgen25EPUBPresentationGenerator21insertMotionAnimationERKN10librevenge16RVNGPropertyListE@Base 0.1.0
 _ZN10libepubgen25EPUBPresentationGenerator21openAnimationSequenceERKN10librevenge16RVNGPropertyListE@Base 0.1.0
 _ZN10libepubgen25EPUBPresentationGenerator21startEmbeddedGraphicsERKN10librevenge16RVNGPropertyListE@Base 0.1.0
 _ZN10libepubgen25EPUBPresentationGenerator22closeAnimationSequenceEv@Base 0.1.0
 _ZN10libepubgen25EPUBPresentationGenerator22insertCoveredTableCellERKN10librevenge16RVNGPropertyListE@Base 0.1.0
 _ZN10libepubgen25EPUBPresentationGenerator22openAnimationIterationERKN10librevenge16RVNGPropertyListE@Base 0.1.0
 _ZN10libepubgen25EPUBPresentationGenerator22openUnorderedListLevelERKN10librevenge16RVNGPropertyListE@Base 0.1.0
 _ZN10libepubgen25EPUBPresentationGenerator23closeAnimationIterationEv@Base 0.1.0
 _ZN10libepubgen25EPUBPresentationGenerator23closeUnorderedListLevelEv@Base 0.1.0
 _ZN10libepubgen25EPUBPresentationGenerator28registerEmbeddedImageHandlerERKN10librevenge10RVNGStringEPFbRKNS1_14RVNGBinaryDataERS5_RNS_13EPUBImageTypeEE@Base 0.1.0
 _ZN10libepubgen25EPUBPresentationGenerator29registerEmbeddedObjectHandlerERKN10librevenge10RVNGStringEPFbRKNS1_14RVNGBinaryDataERKNS_20EPUBEmbeddingContactEE@Base 0.1.0
 _ZN10libepubgen25EPUBPresentationGenerator4ImplC1EPNS_11EPUBPackageEi@Base 0.1.0
 _ZN10libepubgen25EPUBPresentationGenerator4ImplC2EPNS_11EPUBPackageEi@Base 0.1.0
 _ZN10libepubgen25EPUBPresentationGenerator4ImplD0Ev@Base 0.1.0
 _ZN10libepubgen25EPUBPresentationGenerator4ImplD1Ev@Base 0.1.0
 _ZN10libepubgen25EPUBPresentationGenerator4ImplD2Ev@Base 0.1.0
 _ZN10libepubgen25EPUBPresentationGenerator8drawPathERKN10librevenge16RVNGPropertyListE@Base 0.1.0
 _ZN10libepubgen25EPUBPresentationGenerator8endLayerEv@Base 0.1.0
 _ZN10libepubgen25EPUBPresentationGenerator8endNotesEv@Base 0.1.0
 _ZN10libepubgen25EPUBPresentationGenerator8endSlideEv@Base 0.1.0
 _ZN10libepubgen25EPUBPresentationGenerator8openLinkERKN10librevenge16RVNGPropertyListE@Base 0.1.0
 _ZN10libepubgen25EPUBPresentationGenerator8openSpanERKN10librevenge16RVNGPropertyListE@Base 0.1.0
 _ZN10libepubgen25EPUBPresentationGenerator8setStyleERKN10librevenge16RVNGPropertyListE@Base 0.1.0
 _ZN10libepubgen25EPUBPresentationGenerator9closeLinkEv@Base 0.1.0
 _ZN10libepubgen25EPUBPresentationGenerator9closeSpanEv@Base 0.1.0
 _ZN10libepubgen25EPUBPresentationGenerator9insertTabEv@Base 0.1.0
 _ZN10libepubgen25EPUBPresentationGenerator9openChartERKN10librevenge16RVNGPropertyListE@Base 0.1.0
 _ZN10libepubgen25EPUBPresentationGenerator9openGroupERKN10librevenge16RVNGPropertyListE@Base 0.1.0
 _ZN10libepubgen25EPUBPresentationGenerator9setOptionEii@Base 0.1.0
 _ZN10libepubgen25EPUBPresentationGeneratorC1EPNS_11EPUBPackageEi@Base 0.1.0
 _ZN10libepubgen25EPUBPresentationGeneratorC1ERNS_20EPUBEmbeddingContactEPNS_11EPUBPackageE@Base 0.1.0
 _ZN10libepubgen25EPUBPresentationGeneratorC2EPNS_11EPUBPackageEi@Base 0.1.0
 _ZN10libepubgen25EPUBPresentationGeneratorC2ERNS_20EPUBEmbeddingContactEPNS_11EPUBPackageE@Base 0.1.0
 _ZN10libepubgen25EPUBPresentationGeneratorD0Ev@Base 0.1.0
 _ZN10libepubgen25EPUBPresentationGeneratorD1Ev@Base 0.1.0
 _ZN10libepubgen25EPUBPresentationGeneratorD2Ev@Base 0.1.0
 _ZN5boost16exception_detail10clone_implINS0_19error_info_injectorISt13runtime_errorEEED0Ev@Base 0.1.0
 _ZN5boost16exception_detail10clone_implINS0_19error_info_injectorISt13runtime_errorEEED1Ev@Base 0.1.0
 _ZN5boost16exception_detail10clone_implINS0_19error_info_injectorISt16invalid_argumentEEED0Ev@Base 0.1.0
 _ZN5boost16exception_detail10clone_implINS0_19error_info_injectorISt16invalid_argumentEEED1Ev@Base 0.1.0
 _ZN5boost16exception_detail19error_info_injectorISt13runtime_errorEC1ERKS3_@Base 0.1.0
 _ZN5boost16exception_detail19error_info_injectorISt13runtime_errorEC2ERKS3_@Base 0.1.0
 _ZN5boost16exception_detail19error_info_injectorISt13runtime_errorED0Ev@Base 0.1.0
 _ZN5boost16exception_detail19error_info_injectorISt13runtime_errorED1Ev@Base 0.1.0
 _ZN5boost16exception_detail19error_info_injectorISt13runtime_errorED2Ev@Base 0.1.0
 _ZN5boost16exception_detail19error_info_injectorISt16invalid_argumentEC1ERKS3_@Base 0.1.0
 _ZN5boost16exception_detail19error_info_injectorISt16invalid_argumentEC2ERKS3_@Base 0.1.0
 _ZN5boost16exception_detail19error_info_injectorISt16invalid_argumentED0Ev@Base 0.1.0
 _ZN5boost16exception_detail19error_info_injectorISt16invalid_argumentED1Ev@Base 0.1.0
 _ZN5boost16exception_detail19error_info_injectorISt16invalid_argumentED2Ev@Base 0.1.0
 _ZNK5boost16exception_detail10clone_implINS0_19error_info_injectorISt13runtime_errorEEE5cloneEv@Base 0.1.0
 _ZNK5boost16exception_detail10clone_implINS0_19error_info_injectorISt13runtime_errorEEE7rethrowEv@Base 0.1.0
 _ZNK5boost16exception_detail10clone_implINS0_19error_info_injectorISt16invalid_argumentEEE5cloneEv@Base 0.1.0
 _ZNK5boost16exception_detail10clone_implINS0_19error_info_injectorISt16invalid_argumentEEE7rethrowEv@Base 0.1.0
 _ZNKSt10_HashtableINSt7__cxx1112basic_stringIcSt11char_traitsIcESaIcEEESt4pairIKS5_S5_ESaIS8_ENSt8__detail10_Select1stESt8equal_toIS5_ESt4hashIS5_ENSA_18_Mod_range_hashingENSA_20_Default_ranged_hashENSA_20_Prime_rehash_policyENSA_17_Hashtable_traitsILb1ELb0ELb1EEEE19_M_find_before_nodeEmRS7_m@Base 0.1.0
 _ZNKSt10_HashtableINSt7__cxx1112basic_stringIcSt11char_traitsIcESaIcEEESt4pairIKS5_S5_ESaIS8_ENSt8__detail10_Select1stESt8equal_toIS5_ESt4hashIS5_ENSA_18_Mod_range_hashingENSA_20_Default_ranged_hashENSA_20_Prime_rehash_policyENSA_17_Hashtable_traitsILb1ELb0ELb1EEEE4findERS7_@Base 0.1.0
 _ZNKSt5ctypeIcE8do_widenEc@Base 0.1.0
 _ZNSt10_HashtableINSt7__cxx1112basic_stringIcSt11char_traitsIcESaIcEEESt4pairIKS5_S5_ESaIS8_ENSt8__detail10_Select1stESt8equal_toIS5_ESt4hashIS5_ENSA_18_Mod_range_hashingENSA_20_Default_ranged_hashENSA_20_Prime_rehash_policyENSA_17_Hashtable_traitsILb1ELb0ELb1EEEE9_M_rehashEmRKm@Base 0.1.0
 _ZNSt10_HashtableINSt7__cxx1112basic_stringIcSt11char_traitsIcESaIcEEESt4pairIKS5_S5_ESaIS8_ENSt8__detail10_Select1stESt8equal_toIS5_ESt4hashIS5_ENSA_18_Mod_range_hashingENSA_20_Default_ranged_hashENSA_20_Prime_rehash_policyENSA_17_Hashtable_traitsILb1ELb0ELb1EEEEC1IPKS8_EET_SP_mRKSF_RKSG_RKSH_RKSD_RKSB_RKS9_@Base 0.1.0
 _ZNSt10_HashtableINSt7__cxx1112basic_stringIcSt11char_traitsIcESaIcEEESt4pairIKS5_S5_ESaIS8_ENSt8__detail10_Select1stESt8equal_toIS5_ESt4hashIS5_ENSA_18_Mod_range_hashingENSA_20_Default_ranged_hashENSA_20_Prime_rehash_policyENSA_17_Hashtable_traitsILb1ELb0ELb1EEEEC2IPKS8_EET_SP_mRKSF_RKSG_RKSH_RKSD_RKSB_RKS9_@Base 0.1.0
 _ZNSt10_HashtableINSt7__cxx1112basic_stringIcSt11char_traitsIcESaIcEEESt4pairIKS5_S5_ESaIS8_ENSt8__detail10_Select1stESt8equal_toIS5_ESt4hashIS5_ENSA_18_Mod_range_hashingENSA_20_Default_ranged_hashENSA_20_Prime_rehash_policyENSA_17_Hashtable_traitsILb1ELb0ELb1EEEED1Ev@Base 0.1.0
 _ZNSt10_HashtableINSt7__cxx1112basic_stringIcSt11char_traitsIcESaIcEEESt4pairIKS5_S5_ESaIS8_ENSt8__detail10_Select1stESt8equal_toIS5_ESt4hashIS5_ENSA_18_Mod_range_hashingENSA_20_Default_ranged_hashENSA_20_Prime_rehash_policyENSA_17_Hashtable_traitsILb1ELb0ELb1EEEED2Ev@Base 0.1.0
 _ZNSt10_HashtableINSt7__cxx1112basic_stringIcSt11char_traitsIcESaIcEEESt4pairIKS5_St5tupleIJS5_S5_S5_EEESaISA_ENSt8__detail10_Select1stESt8equal_toIS5_ESt4hashIS5_ENSC_18_Mod_range_hashingENSC_20_Default_ranged_hashENSC_20_Prime_rehash_policyENSC_17_Hashtable_traitsILb1ELb0ELb1EEEE10_M_emplaceIJSA_EEES6_INSC_14_Node_iteratorISA_Lb0ELb1EEEbESt17integral_constantIbLb1EEDpOT_@Base 0.1.0
 _ZNSt10_HashtableINSt7__cxx1112basic_stringIcSt11char_traitsIcESaIcEEESt4pairIKS5_St5tupleIJS5_S5_S5_EEESaISA_ENSt8__detail10_Select1stESt8equal_toIS5_ESt4hashIS5_ENSC_18_Mod_range_hashingENSC_20_Default_ranged_hashENSC_20_Prime_rehash_policyENSC_17_Hashtable_traitsILb1ELb0ELb1EEEE9_M_rehashEmRKm@Base 0.1.0
 _ZNSt10_HashtableINSt7__cxx1112basic_stringIcSt11char_traitsIcESaIcEEESt4pairIKS5_St5tupleIJS5_S5_S5_EEESaISA_ENSt8__detail10_Select1stESt8equal_toIS5_ESt4hashIS5_ENSC_18_Mod_range_hashingENSC_20_Default_ranged_hashENSC_20_Prime_rehash_policyENSC_17_Hashtable_traitsILb1ELb0ELb1EEEED1Ev@Base 0.1.0
 _ZNSt10_HashtableINSt7__cxx1112basic_stringIcSt11char_traitsIcESaIcEEESt4pairIKS5_St5tupleIJS5_S5_S5_EEESaISA_ENSt8__detail10_Select1stESt8equal_toIS5_ESt4hashIS5_ENSC_18_Mod_range_hashingENSC_20_Default_ranged_hashENSC_20_Prime_rehash_policyENSC_17_Hashtable_traitsILb1ELb0ELb1EEEED2Ev@Base 0.1.0
 _ZNSt11_Deque_baseIcSaIcEED1Ev@Base 0.1.0
 _ZNSt11_Deque_baseIcSaIcEED2Ev@Base 0.1.0
 _ZNSt13unordered_mapINSt7__cxx1112basic_stringIcSt11char_traitsIcESaIcEEES5_St4hashIS5_ESt8equal_toIS5_ESaISt4pairIKS5_S5_EEED1Ev@Base 0.1.0
 _ZNSt13unordered_mapINSt7__cxx1112basic_stringIcSt11char_traitsIcESaIcEEES5_St4hashIS5_ESt8equal_toIS5_ESaISt4pairIKS5_S5_EEED2Ev@Base 0.1.0
 _ZNSt15_Sp_counted_ptrIDnLN9__gnu_cxx12_Lock_policyE2EE10_M_disposeEv@Base 0.1.0
 _ZNSt16_Sp_counted_baseILN9__gnu_cxx12_Lock_policyE2EE10_M_destroyEv@Base 0.1.0
 _ZNSt16_Sp_counted_baseILN9__gnu_cxx12_Lock_policyE2EE10_M_releaseEv@Base 0.1.0
 _ZNSt3mapINSt7__cxx1112basic_stringIcSt11char_traitsIcESaIcEEES5_St4lessIS5_ESaISt4pairIKS5_S5_EEED1Ev@Base 0.1.0
 _ZNSt3mapINSt7__cxx1112basic_stringIcSt11char_traitsIcESaIcEEES5_St4lessIS5_ESaISt4pairIKS5_S5_EEED2Ev@Base 0.1.0
 _ZNSt3mapINSt7__cxx1112basic_stringIcSt11char_traitsIcESaIcEEES5_St4lessIS5_ESaISt4pairIKS5_S5_EEEixEOS5_@Base 0.1.0
 _ZNSt4pairIKNSt7__cxx1112basic_stringIcSt11char_traitsIcESaIcEEES5_ED1Ev@Base 0.1.0
 _ZNSt4pairIKNSt7__cxx1112basic_stringIcSt11char_traitsIcESaIcEEES5_ED2Ev@Base 0.1.0
 _ZNSt4pairIKNSt7__cxx1112basic_stringIcSt11char_traitsIcESaIcEEESt5tupleIJS5_S5_S5_EEED1Ev@Base 0.1.0
 _ZNSt4pairIKNSt7__cxx1112basic_stringIcSt11char_traitsIcESaIcEEESt5tupleIJS5_S5_S5_EEED2Ev@Base 0.1.0
 _ZNSt5dequeINSt7__cxx1112basic_stringIcSt11char_traitsIcESaIcEEESaIS5_EE16_M_push_back_auxIJRKS5_EEEvDpOT_@Base 0.1.0
 _ZNSt5dequeINSt7__cxx1112basic_stringIcSt11char_traitsIcESaIcEEESaIS5_EED1Ev@Base 0.1.0
 _ZNSt5dequeINSt7__cxx1112basic_stringIcSt11char_traitsIcESaIcEEESaIS5_EED2Ev@Base 0.1.0
 _ZNSt5dequeIcSaIcEE13_M_insert_auxIPKcEEvSt15_Deque_iteratorIcRcPcET_S9_m@Base 0.1.0
 _ZNSt5dequeIcSaIcEE17_M_reallocate_mapEmb@Base 0.1.0
 _ZNSt5dequeIcSaIcEE23_M_new_elements_at_backEm@Base 0.1.0
 _ZNSt5dequeIcSaIcEE24_M_new_elements_at_frontEm@Base 0.1.0
 _ZNSt6vectorINSt7__cxx1112basic_stringIcSt11char_traitsIcESaIcEEESaIS5_EE15_M_range_insertIN9__gnu_cxx17__normal_iteratorIPKS5_S7_EEEEvNSA_IPS5_S7_EET_SG_St20forward_iterator_tag@Base 0.1.0
 _ZNSt6vectorINSt7__cxx1112basic_stringIcSt11char_traitsIcESaIcEEESaIS5_EE17_M_realloc_insertIJRKS5_EEEvN9__gnu_cxx17__normal_iteratorIPS5_S7_EEDpOT_@Base 0.1.0
 _ZNSt6vectorINSt7__cxx1112basic_stringIcSt11char_traitsIcESaIcEEESaIS5_EE17_M_realloc_insertIJS5_EEEvN9__gnu_cxx17__normal_iteratorIPS5_S7_EEDpOT_@Base 0.1.0
 _ZNSt6vectorINSt7__cxx1112basic_stringIcSt11char_traitsIcESaIcEEESaIS5_EED1Ev@Base 0.1.0
 _ZNSt6vectorINSt7__cxx1112basic_stringIcSt11char_traitsIcESaIcEEESaIS5_EED2Ev@Base 0.1.0
 _ZNSt6vectorIS_IdSaIdEESaIS1_EE17_M_realloc_insertIJRKS1_EEEvN9__gnu_cxx17__normal_iteratorIPS1_S3_EEDpOT_@Base 0.1.0
 _ZNSt6vectorISt3mapINSt7__cxx1112basic_stringIcSt11char_traitsIcESaIcEEES6_St4lessIS6_ESaISt4pairIKS6_S6_EEESaISD_EE17_M_default_appendEm@Base 0.1.0
 _ZNSt6vectorISt3mapINSt7__cxx1112basic_stringIcSt11char_traitsIcESaIcEEES6_St4lessIS6_ESaISt4pairIKS6_S6_EEESaISD_EEaSERKSF_@Base 0.1.0
 _ZNSt6vectorIdSaIdEE17_M_realloc_insertIJRKdEEEvN9__gnu_cxx17__normal_iteratorIPdS1_EEDpOT_@Base 0.1.0
 _ZNSt6vectorIiSaIiEE17_M_realloc_insertIJRKiEEEvN9__gnu_cxx17__normal_iteratorIPiS1_EEDpOT_@Base 0.1.0
 _ZNSt7__cxx1112basic_stringIcSt11char_traitsIcESaIcEE19_M_replace_dispatchISt15_Deque_iteratorIcRcPcEEERS4_N9__gnu_cxx17__normal_iteratorIPKcS4_EESF_T_SG_St12__false_type@Base 0.1.0
 _ZNSt7__cxx1115basic_stringbufIcSt11char_traitsIcESaIcEED0Ev@Base 0.1.0
 _ZNSt7__cxx1115basic_stringbufIcSt11char_traitsIcESaIcEED1Ev@Base 0.1.0
 _ZNSt7__cxx1115basic_stringbufIcSt11char_traitsIcESaIcEED2Ev@Base 0.1.0
 _ZNSt8_Rb_treeINSt7__cxx1112basic_stringIcSt11char_traitsIcESaIcEEESt4pairIKS5_S5_ESt10_Select1stIS8_ESt4lessIS5_ESaIS8_EE24_M_get_insert_unique_posERS7_@Base 0.1.0
 _ZNSt8_Rb_treeINSt7__cxx1112basic_stringIcSt11char_traitsIcESaIcEEESt4pairIKS5_S5_ESt10_Select1stIS8_ESt4lessIS5_ESaIS8_EE29_M_get_insert_hint_unique_posESt23_Rb_tree_const_iteratorIS8_ERS7_@Base 0.1.0
 _ZNSt8_Rb_treeINSt7__cxx1112basic_stringIcSt11char_traitsIcESaIcEEESt4pairIKS5_S5_ESt10_Select1stIS8_ESt4lessIS5_ESaIS8_EE7_M_copyINSE_11_Alloc_nodeEEEPSt13_Rb_tree_nodeIS8_EPKSI_PSt18_Rb_tree_node_baseRT_@Base 0.1.0
 _ZNSt8_Rb_treeINSt7__cxx1112basic_stringIcSt11char_traitsIcESaIcEEESt4pairIKS5_S5_ESt10_Select1stIS8_ESt4lessIS5_ESaIS8_EE7_M_copyINSE_20_Reuse_or_alloc_nodeEEEPSt13_Rb_tree_nodeIS8_EPKSI_PSt18_Rb_tree_node_baseRT_@Base 0.1.0
 _ZNSt8_Rb_treeINSt7__cxx1112basic_stringIcSt11char_traitsIcESaIcEEESt4pairIKS5_S5_ESt10_Select1stIS8_ESt4lessIS5_ESaIS8_EE8_M_eraseEPSt13_Rb_tree_nodeIS8_E@Base 0.1.0
 _ZNSt8_Rb_treeINSt7__cxx1112basic_stringIcSt11char_traitsIcESaIcEEESt4pairIKS5_S5_ESt10_Select1stIS8_ESt4lessIS5_ESaIS8_EEaSERKSE_@Base 0.1.0
 _ZNSt8_Rb_treeIiSt4pairIKiNSt7__cxx1112basic_stringIcSt11char_traitsIcESaIcEEEESt10_Select1stIS8_ESt4lessIiESaIS8_EE24_M_get_insert_unique_posERS1_@Base 0.1.0
 _ZNSt8_Rb_treeIiSt4pairIKiNSt7__cxx1112basic_stringIcSt11char_traitsIcESaIcEEEESt10_Select1stIS8_ESt4lessIiESaIS8_EE29_M_get_insert_hint_unique_posESt23_Rb_tree_const_iteratorIS8_ERS1_@Base 0.1.0
 _ZNSt8_Rb_treeIiSt4pairIKiNSt7__cxx1112basic_stringIcSt11char_traitsIcESaIcEEEESt10_Select1stIS8_ESt4lessIiESaIS8_EE8_M_eraseEPSt13_Rb_tree_nodeIS8_E@Base 0.1.0
 _ZStplIcSt11char_traitsIcESaIcEENSt7__cxx1112basic_stringIT_T0_T1_EEPKS5_RKS8_@Base 0.1.0
 _ZTIN10libepubgen17EPUBTextGenerator4ImplE@Base 0.1.0
 _ZTIN10libepubgen17EPUBTextGeneratorE@Base 0.1.0
 _ZTIN10libepubgen20EPUBDrawingGenerator4ImplE@Base 0.1.0
 _ZTIN10libepubgen20EPUBDrawingGeneratorE@Base 0.1.0
 _ZTIN10libepubgen25EPUBPresentationGenerator4ImplE@Base 0.1.0
 _ZTIN10libepubgen25EPUBPresentationGeneratorE@Base 0.1.0
 _ZTIN5boost16exception_detail10clone_baseE@Base 0.1.0
 _ZTIN5boost16exception_detail10clone_implINS0_19error_info_injectorISt13runtime_errorEEEE@Base 0.1.0
 _ZTIN5boost16exception_detail10clone_implINS0_19error_info_injectorISt16invalid_argumentEEEE@Base 0.1.0
 _ZTIN5boost16exception_detail19error_info_injectorISt13runtime_errorEE@Base 0.1.0
 _ZTIN5boost16exception_detail19error_info_injectorISt16invalid_argumentEE@Base 0.1.0
 _ZTIN5boost9exceptionE@Base 0.1.0
 _ZTISt11_Mutex_baseILN9__gnu_cxx12_Lock_policyE2EE@Base 0.1.0
 _ZTISt16_Sp_counted_baseILN9__gnu_cxx12_Lock_policyE2EE@Base 0.1.0
 _ZTSN10libepubgen17EPUBTextGenerator4ImplE@Base 0.1.0
 _ZTSN10libepubgen17EPUBTextGeneratorE@Base 0.1.0
 _ZTSN10libepubgen20EPUBDrawingGenerator4ImplE@Base 0.1.0
 _ZTSN10libepubgen20EPUBDrawingGeneratorE@Base 0.1.0
 _ZTSN10libepubgen25EPUBPresentationGenerator4ImplE@Base 0.1.0
 _ZTSN10libepubgen25EPUBPresentationGeneratorE@Base 0.1.0
 _ZTSN5boost16exception_detail10clone_baseE@Base 0.1.0
 _ZTSN5boost16exception_detail10clone_implINS0_19error_info_injectorISt13runtime_errorEEEE@Base 0.1.0
 _ZTSN5boost16exception_detail10clone_implINS0_19error_info_injectorISt16invalid_argumentEEEE@Base 0.1.0
 _ZTSN5boost16exception_detail19error_info_injectorISt13runtime_errorEE@Base 0.1.0
 _ZTSN5boost16exception_detail19error_info_injectorISt16invalid_argumentEE@Base 0.1.0
 _ZTSN5boost9exceptionE@Base 0.1.0
 _ZTSSt11_Mutex_baseILN9__gnu_cxx12_Lock_policyE2EE@Base 0.1.0
 _ZTSSt16_Sp_counted_baseILN9__gnu_cxx12_Lock_policyE2EE@Base 0.1.0
 _ZTTN5boost16exception_detail10clone_implINS0_19error_info_injectorISt13runtime_errorEEEE@Base 0.1.0
 _ZTTN5boost16exception_detail10clone_implINS0_19error_info_injectorISt16invalid_argumentEEEE@Base 0.1.0
 _ZTVN10libepubgen17EPUBTextGenerator4ImplE@Base 0.1.0
 _ZTVN10libepubgen17EPUBTextGeneratorE@Base 0.1.0
 _ZTVN10libepubgen20EPUBDrawingGenerator4ImplE@Base 0.1.0
 _ZTVN10libepubgen20EPUBDrawingGeneratorE@Base 0.1.0
 _ZTVN10libepubgen25EPUBPresentationGenerator4ImplE@Base 0.1.0
 _ZTVN10libepubgen25EPUBPresentationGeneratorE@Base 0.1.0
 _ZTVN5boost16exception_detail10clone_baseE@Base 0.1.0
 _ZTVN5boost16exception_detail10clone_implINS0_19error_info_injectorISt13runtime_errorEEEE@Base 0.1.0
 _ZTVN5boost16exception_detail10clone_implINS0_19error_info_injectorISt16invalid_argumentEEEE@Base 0.1.0
 _ZTVN5boost16exception_detail19error_info_injectorISt13runtime_errorEE@Base 0.1.0
 _ZTVN5boost16exception_detail19error_info_injectorISt16invalid_argumentEE@Base 0.1.0
 _ZTVN5boost9exceptionE@Base 0.1.0
 _ZThn16_N5boost16exception_detail10clone_implINS0_19error_info_injectorISt13runtime_errorEEED0Ev@Base 0.1.0
 _ZThn16_N5boost16exception_detail10clone_implINS0_19error_info_injectorISt13runtime_errorEEED1Ev@Base 0.1.0
 _ZThn16_N5boost16exception_detail10clone_implINS0_19error_info_injectorISt16invalid_argumentEEED0Ev@Base 0.1.0
 _ZThn16_N5boost16exception_detail10clone_implINS0_19error_info_injectorISt16invalid_argumentEEED1Ev@Base 0.1.0
 _ZThn16_N5boost16exception_detail19error_info_injectorISt13runtime_errorED0Ev@Base 0.1.0
 _ZThn16_N5boost16exception_detail19error_info_injectorISt13runtime_errorED1Ev@Base 0.1.0
 _ZThn16_N5boost16exception_detail19error_info_injectorISt16invalid_argumentED0Ev@Base 0.1.0
 _ZThn16_N5boost16exception_detail19error_info_injectorISt16invalid_argumentED1Ev@Base 0.1.0
 _ZTv0_n24_NK5boost16exception_detail10clone_implINS0_19error_info_injectorISt13runtime_errorEEE5cloneEv@Base 0.1.0
 _ZTv0_n24_NK5boost16exception_detail10clone_implINS0_19error_info_injectorISt16invalid_argumentEEE5cloneEv@Base 0.1.0
 _ZTv0_n32_NK5boost16exception_detail10clone_implINS0_19error_info_injectorISt13runtime_errorEEE7rethrowEv@Base 0.1.0
 _ZTv0_n32_NK5boost16exception_detail10clone_implINS0_19error_info_injectorISt16invalid_argumentEEE7rethrowEv@Base 0.1.0
 _ZTv0_n40_N5boost16exception_detail10clone_implINS0_19error_info_injectorISt13runtime_errorEEED0Ev@Base 0.1.0
 _ZTv0_n40_N5boost16exception_detail10clone_implINS0_19error_info_injectorISt13runtime_errorEEED1Ev@Base 0.1.0
 _ZTv0_n40_N5boost16exception_detail10clone_implINS0_19error_info_injectorISt16invalid_argumentEEED0Ev@Base 0.1.0
 _ZTv0_n40_N5boost16exception_detail10clone_implINS0_19error_info_injectorISt16invalid_argumentEEED1Ev@Base 0.1.0
