libkasten3controllers.so.3 libkasten3controllers3 #MINVER#
 _ZN6Kasten12TerminalTool11qt_metacallEN11QMetaObject4CallEiPPv@Base 4:14.12.0
 _ZN6Kasten12TerminalTool11qt_metacastEPKc@Base 4:14.12.0
 _ZN6Kasten12TerminalTool14setTargetModelEPNS_13AbstractModelE@Base 4:14.12.0
 _ZN6Kasten12TerminalTool16staticMetaObjectE@Base 4:14.12.0
 _ZN6Kasten12TerminalTool17currentUrlChangedERK4QUrl@Base 4:14.12.0
 _ZN6Kasten12TerminalToolC1EPNS_19DocumentSyncManagerE@Base 4:14.12.0
 _ZN6Kasten12TerminalToolC2EPNS_19DocumentSyncManagerE@Base 4:14.12.0
 _ZN6Kasten12TerminalToolD0Ev@Base 4:14.12.0
 _ZN6Kasten12TerminalToolD1Ev@Base 4:14.12.0
 _ZN6Kasten12TerminalToolD2Ev@Base 4:14.12.0
 _ZN6Kasten13DocumentsTool11qt_metacallEN11QMetaObject4CallEiPPv@Base 4:14.12.0
 _ZN6Kasten13DocumentsTool11qt_metacastEPKc@Base 4:14.12.0
 _ZN6Kasten13DocumentsTool14documentsAddedERK5QListIPNS_16AbstractDocumentEE@Base 4:14.12.0
 _ZN6Kasten13DocumentsTool14setTargetModelEPNS_13AbstractModelE@Base 4:14.12.0
 _ZN6Kasten13DocumentsTool16documentsClosingERK5QListIPNS_16AbstractDocumentEE@Base 4:14.12.0
 _ZN6Kasten13DocumentsTool16staticMetaObjectE@Base 4:14.12.0
 _ZN6Kasten13DocumentsTool19setFocussedDocumentEPNS_16AbstractDocumentE@Base 4:14.12.0
 _ZN6Kasten13DocumentsTool23focussedDocumentChangedEPNS_16AbstractDocumentE@Base 4:14.12.0
 _ZN6Kasten13DocumentsToolC1EPNS_15DocumentManagerE@Base 4:14.12.0
 _ZN6Kasten13DocumentsToolC2EPNS_15DocumentManagerE@Base 4:14.12.0
 _ZN6Kasten13DocumentsToolD0Ev@Base 4:14.12.0
 _ZN6Kasten13DocumentsToolD1Ev@Base 4:14.12.0
 _ZN6Kasten13DocumentsToolD2Ev@Base 4:14.12.0
 _ZN6Kasten14QuitController11qt_metacallEN11QMetaObject4CallEiPPv@Base 4:14.12.0
 _ZN6Kasten14QuitController11qt_metacastEPKc@Base 4:14.12.0
 _ZN6Kasten14QuitController14setTargetModelEPNS_13AbstractModelE@Base 4:14.12.0
 _ZN6Kasten14QuitController16staticMetaObjectE@Base 4:14.12.0
 _ZN6Kasten14QuitController4quitEv@Base 4:14.12.0
 _ZN6Kasten14QuitControllerC1EPNS_8KProgramEP13KXmlGuiWindow@Base 4:14.12.0
 _ZN6Kasten14QuitControllerC2EPNS_8KProgramEP13KXmlGuiWindow@Base 4:14.12.0
 _ZN6Kasten14ZoomController11qt_metacallEN11QMetaObject4CallEiPPv@Base 4:14.12.0
 _ZN6Kasten14ZoomController11qt_metacastEPKc@Base 4:14.12.0
 _ZN6Kasten14ZoomController14setTargetModelEPNS_13AbstractModelE@Base 4:14.12.0
 _ZN6Kasten14ZoomController16staticMetaObjectE@Base 4:14.12.0
 _ZN6Kasten14ZoomController17onZoomLevelChangeEd@Base 4:14.12.0
 _ZN6Kasten14ZoomController6zoomInEv@Base 4:14.12.0
 _ZN6Kasten14ZoomController7zoomOutEv@Base 4:14.12.0
 _ZN6Kasten14ZoomControllerC1EP13KXMLGUIClient@Base 4:14.12.0
 _ZN6Kasten14ZoomControllerC2EP13KXMLGUIClient@Base 4:14.12.0
 _ZN6Kasten15CloseController11qt_metacallEN11QMetaObject4CallEiPPv@Base 4:14.12.0
 _ZN6Kasten15CloseController11qt_metacastEPKc@Base 4:14.12.0
 _ZN6Kasten15CloseController13closeAllOtherEv@Base 4:14.12.0
 _ZN6Kasten15CloseController14setTargetModelEPNS_13AbstractModelE@Base 4:14.12.0
 _ZN6Kasten15CloseController16staticMetaObjectE@Base 4:14.12.0
 _ZN6Kasten15CloseController18onDocumentsChangedEv@Base 4:14.12.0
 _ZN6Kasten15CloseController5closeEv@Base 4:14.12.0
 _ZN6Kasten15CloseController8closeAllEv@Base 4:14.12.0
 _ZN6Kasten15CloseControllerC1EPNS_24AbstractDocumentStrategyEP13KXMLGUIClientb@Base 4:14.12.0
 _ZN6Kasten15CloseControllerC2EPNS_24AbstractDocumentStrategyEP13KXMLGUIClientb@Base 4:14.12.0
 _ZN6Kasten15CloseControllerD0Ev@Base 4:14.12.0
 _ZN6Kasten15CloseControllerD1Ev@Base 4:14.12.0
 _ZN6Kasten15CloseControllerD2Ev@Base 4:14.12.0
 _ZN6Kasten15VersionViewTool11qt_metacallEN11QMetaObject4CallEiPPv@Base 4:14.12.0
 _ZN6Kasten15VersionViewTool11qt_metacastEPKc@Base 4:14.12.0
 _ZN6Kasten15VersionViewTool12modelChangedEPNS_13AbstractModelE@Base 4:14.12.0
 _ZN6Kasten15VersionViewTool14setTargetModelEPNS_13AbstractModelE@Base 4:14.12.0
 _ZN6Kasten15VersionViewTool16staticMetaObjectE@Base 4:14.12.0
 _ZN6Kasten15VersionViewToolC1Ev@Base 4:14.12.0
 _ZN6Kasten15VersionViewToolC2Ev@Base 4:14.12.0
 _ZN6Kasten15VersionViewToolD0Ev@Base 4:14.12.0
 _ZN6Kasten15VersionViewToolD1Ev@Base 4:14.12.0
 _ZN6Kasten15VersionViewToolD2Ev@Base 4:14.12.0
 _ZN6Kasten16CopyAsController11qt_metacallEN11QMetaObject4CallEiPPv@Base 4:14.12.0
 _ZN6Kasten16CopyAsController11qt_metacastEPKc@Base 4:14.12.0
 _ZN6Kasten16CopyAsController13updateActionsEv@Base 4:14.12.0
 _ZN6Kasten16CopyAsController14setTargetModelEPNS_13AbstractModelE@Base 4:14.12.0
 _ZN6Kasten16CopyAsController16staticMetaObjectE@Base 4:14.12.0
 _ZN6Kasten16CopyAsController17onActionTriggeredEP7QAction@Base 4:14.12.0
 _ZN6Kasten16CopyAsControllerC1EPNS_21ModelCodecViewManagerEPNS_17ModelCodecManagerEP13KXMLGUIClient@Base 4:14.12.0
 _ZN6Kasten16CopyAsControllerC2EPNS_21ModelCodecViewManagerEPNS_17ModelCodecManagerEP13KXMLGUIClient@Base 4:14.12.0
 _ZN6Kasten16ExportController11qt_metacallEN11QMetaObject4CallEiPPv@Base 4:14.12.0
 _ZN6Kasten16ExportController11qt_metacastEPKc@Base 4:14.12.0
 _ZN6Kasten16ExportController13updateActionsEv@Base 4:14.12.0
 _ZN6Kasten16ExportController14setTargetModelEPNS_13AbstractModelE@Base 4:14.12.0
 _ZN6Kasten16ExportController16staticMetaObjectE@Base 4:14.12.0
 _ZN6Kasten16ExportController17onActionTriggeredEP7QAction@Base 4:14.12.0
 _ZN6Kasten16ExportControllerC1EPNS_21ModelCodecViewManagerEPNS_17ModelCodecManagerEP13KXMLGUIClient@Base 4:14.12.0
 _ZN6Kasten16ExportControllerC2EPNS_21ModelCodecViewManagerEPNS_17ModelCodecManagerEP13KXMLGUIClient@Base 4:14.12.0
 _ZN6Kasten16InsertController11qt_metacallEN11QMetaObject4CallEiPPv@Base 4:14.12.0
 _ZN6Kasten16InsertController11qt_metacastEPKc@Base 4:14.12.0
 _ZN6Kasten16InsertController13updateActionsEv@Base 4:14.12.0
 _ZN6Kasten16InsertController14setTargetModelEPNS_13AbstractModelE@Base 4:14.12.0
 _ZN6Kasten16InsertController16staticMetaObjectE@Base 4:14.12.0
 _ZN6Kasten16InsertController17onActionTriggeredEP7QAction@Base 4:14.12.0
 _ZN6Kasten16InsertController17onReadOnlyChangedEb@Base 4:14.12.0
 _ZN6Kasten16InsertControllerC1EPNS_21ModelCodecViewManagerEPNS_17ModelCodecManagerEP13KXMLGUIClient@Base 4:14.12.0
 _ZN6Kasten16InsertControllerC2EPNS_21ModelCodecViewManagerEPNS_17ModelCodecManagerEP13KXMLGUIClient@Base 4:14.12.0
 _ZN6Kasten16LoaderController10loadRecentERK4QUrl@Base 4:14.12.0
 _ZN6Kasten16LoaderController11qt_metacallEN11QMetaObject4CallEiPPv@Base 4:14.12.0
 _ZN6Kasten16LoaderController11qt_metacastEPKc@Base 4:14.12.0
 _ZN6Kasten16LoaderController14setTargetModelEPNS_13AbstractModelE@Base 4:14.12.0
 _ZN6Kasten16LoaderController16staticMetaObjectE@Base 4:14.12.0
 _ZN6Kasten16LoaderController4loadEv@Base 4:14.12.0
 _ZN6Kasten16LoaderController9onUrlUsedERK4QUrl@Base 4:14.12.0
 _ZN6Kasten16LoaderControllerC1EPNS_24AbstractDocumentStrategyEP13KXMLGUIClient@Base 4:14.12.0
 _ZN6Kasten16LoaderControllerC2EPNS_24AbstractDocumentStrategyEP13KXMLGUIClient@Base 4:14.12.0
 _ZN6Kasten16LoaderControllerD0Ev@Base 4:14.12.0
 _ZN6Kasten16LoaderControllerD1Ev@Base 4:14.12.0
 _ZN6Kasten16LoaderControllerD2Ev@Base 4:14.12.0
 _ZN6Kasten16SelectController11qt_metacallEN11QMetaObject4CallEiPPv@Base 4:14.12.0
 _ZN6Kasten16SelectController11qt_metacastEPKc@Base 4:14.12.0
 _ZN6Kasten16SelectController14setTargetModelEPNS_13AbstractModelE@Base 4:14.12.0
 _ZN6Kasten16SelectController16staticMetaObjectE@Base 4:14.12.0
 _ZN6Kasten16SelectController24onHasSelectedDataChangedEb@Base 4:14.12.0
 _ZN6Kasten16SelectController8unselectEv@Base 4:14.12.0
 _ZN6Kasten16SelectController9selectAllEv@Base 4:14.12.0
 _ZN6Kasten16SelectControllerC1EP13KXMLGUIClient@Base 4:14.12.0
 _ZN6Kasten16SelectControllerC2EP13KXMLGUIClient@Base 4:14.12.0
 _ZN6Kasten16TerminalToolViewC1EPNS_12TerminalToolE@Base 4:14.12.0
 _ZN6Kasten16TerminalToolViewC2EPNS_12TerminalToolE@Base 4:14.12.0
 _ZN6Kasten16TerminalToolViewD0Ev@Base 4:14.12.0
 _ZN6Kasten16TerminalToolViewD1Ev@Base 4:14.12.0
 _ZN6Kasten16TerminalToolViewD2Ev@Base 4:14.12.0
 _ZN6Kasten17CreatorController11qt_metacallEN11QMetaObject4CallEiPPv@Base 4:14.12.0
 _ZN6Kasten17CreatorController11qt_metacastEPKc@Base 4:14.12.0
 _ZN6Kasten17CreatorController14setTargetModelEPNS_13AbstractModelE@Base 4:14.12.0
 _ZN6Kasten17CreatorController16staticMetaObjectE@Base 4:14.12.0
 _ZN6Kasten17CreatorController20onNewActionTriggeredEv@Base 4:14.12.0
 _ZN6Kasten17CreatorController33onNewFromClipboardActionTriggeredEv@Base 4:14.12.0
 _ZN6Kasten17CreatorController33onNewFromGeneratorActionTriggeredEv@Base 4:14.12.0
 _ZN6Kasten17CreatorControllerC1EPNS_17ModelCodecManagerEPNS_24AbstractDocumentStrategyEP13KXMLGUIClient@Base 4:14.12.0
 _ZN6Kasten17CreatorControllerC2EPNS_17ModelCodecManagerEPNS_24AbstractDocumentStrategyEP13KXMLGUIClient@Base 4:14.12.0
 _ZN6Kasten17CreatorControllerD0Ev@Base 4:14.12.0
 _ZN6Kasten17CreatorControllerD1Ev@Base 4:14.12.0
 _ZN6Kasten17CreatorControllerD2Ev@Base 4:14.12.0
 _ZN6Kasten17DocumentsToolViewC1EPNS_13DocumentsToolE@Base 4:14.12.0
 _ZN6Kasten17DocumentsToolViewC2EPNS_13DocumentsToolE@Base 4:14.12.0
 _ZN6Kasten17DocumentsToolViewD0Ev@Base 4:14.12.0
 _ZN6Kasten17DocumentsToolViewD1Ev@Base 4:14.12.0
 _ZN6Kasten17DocumentsToolViewD2Ev@Base 4:14.12.0
 _ZN6Kasten17VersionController11qt_metacallEN11QMetaObject4CallEiPPv@Base 4:14.12.0
 _ZN6Kasten17VersionController11qt_metacastEPKc@Base 4:14.12.0
 _ZN6Kasten17VersionController14setTargetModelEPNS_13AbstractModelE@Base 4:14.12.0
 _ZN6Kasten17VersionController16staticMetaObjectE@Base 4:14.12.0
 _ZN6Kasten17VersionController17onReadOnlyChangedEb@Base 4:14.12.0
 _ZN6Kasten17VersionController21onVersionIndexChangedEi@Base 4:14.12.0
 _ZN6Kasten17VersionController27onNewerVersionMenuTriggeredEP7QAction@Base 4:14.12.0
 _ZN6Kasten17VersionController27onOlderVersionMenuTriggeredEP7QAction@Base 4:14.12.0
 _ZN6Kasten17VersionController28onSetToNewerVersionTriggeredEv@Base 4:14.12.0
 _ZN6Kasten17VersionController28onSetToOlderVersionTriggeredEv@Base 4:14.12.0
 _ZN6Kasten17VersionController29onNewerVersionMenuAboutToShowEv@Base 4:14.12.0
 _ZN6Kasten17VersionController29onOlderVersionMenuAboutToShowEv@Base 4:14.12.0
 _ZN6Kasten17VersionControllerC1EP13KXMLGUIClient@Base 4:14.12.0
 _ZN6Kasten17VersionControllerC2EP13KXMLGUIClient@Base 4:14.12.0
 _ZN6Kasten17ZoomBarController11qt_metacallEN11QMetaObject4CallEiPPv@Base 4:14.12.0
 _ZN6Kasten17ZoomBarController11qt_metacastEPKc@Base 4:14.12.0
 _ZN6Kasten17ZoomBarController14setTargetModelEPNS_13AbstractModelE@Base 4:14.12.0
 _ZN6Kasten17ZoomBarController16staticMetaObjectE@Base 4:14.12.0
 _ZN6Kasten17ZoomBarControllerC1EPNS_9StatusBarE@Base 4:14.12.0
 _ZN6Kasten17ZoomBarControllerC2EPNS_9StatusBarE@Base 4:14.12.0
 _ZN6Kasten18ReadOnlyController11qt_metacallEN11QMetaObject4CallEiPPv@Base 4:14.12.0
 _ZN6Kasten18ReadOnlyController11qt_metacastEPKc@Base 4:14.12.0
 _ZN6Kasten18ReadOnlyController11setReadOnlyEb@Base 4:14.12.0
 _ZN6Kasten18ReadOnlyController14setTargetModelEPNS_13AbstractModelE@Base 4:14.12.0
 _ZN6Kasten18ReadOnlyController16staticMetaObjectE@Base 4:14.12.0
 _ZN6Kasten18ReadOnlyControllerC1EP13KXMLGUIClient@Base 4:14.12.0
 _ZN6Kasten18ReadOnlyControllerC2EP13KXMLGUIClient@Base 4:14.12.0
 _ZN6Kasten19ClipboardController11qt_metacallEN11QMetaObject4CallEiPPv@Base 4:14.12.0
 _ZN6Kasten19ClipboardController11qt_metacastEPKc@Base 4:14.12.0
 _ZN6Kasten19ClipboardController14setTargetModelEPNS_13AbstractModelE@Base 4:14.12.0
 _ZN6Kasten19ClipboardController16staticMetaObjectE@Base 4:14.12.0
 _ZN6Kasten19ClipboardController17onReadOnlyChangedEb@Base 4:14.12.0
 _ZN6Kasten19ClipboardController22onClipboardDataChangedEv@Base 4:14.12.0
 _ZN6Kasten19ClipboardController24onHasSelectedDataChangedEb@Base 4:14.12.0
 _ZN6Kasten19ClipboardController3cutEv@Base 4:14.12.0
 _ZN6Kasten19ClipboardController4copyEv@Base 4:14.12.0
 _ZN6Kasten19ClipboardController5pasteEv@Base 4:14.12.0
 _ZN6Kasten19ClipboardControllerC1EP13KXMLGUIClient@Base 4:14.12.0
 _ZN6Kasten19ClipboardControllerC2EP13KXMLGUIClient@Base 4:14.12.0
 _ZN6Kasten19SetRemoteController11qt_metacallEN11QMetaObject4CallEiPPv@Base 4:14.12.0
 _ZN6Kasten19SetRemoteController11qt_metacastEPKc@Base 4:14.12.0
 _ZN6Kasten19SetRemoteController14setTargetModelEPNS_13AbstractModelE@Base 4:14.12.0
 _ZN6Kasten19SetRemoteController16staticMetaObjectE@Base 4:14.12.0
 _ZN6Kasten19SetRemoteController6saveAsEv@Base 4:14.12.0
 _ZN6Kasten19SetRemoteControllerC1EPNS_19DocumentSyncManagerEP13KXMLGUIClient@Base 4:14.12.0
 _ZN6Kasten19SetRemoteControllerC2EPNS_19DocumentSyncManagerEP13KXMLGUIClient@Base 4:14.12.0
 _ZN6Kasten19VersionViewToolViewC1EPNS_15VersionViewToolE@Base 4:14.12.0
 _ZN6Kasten19VersionViewToolViewC2EPNS_15VersionViewToolE@Base 4:14.12.0
 _ZN6Kasten19VersionViewToolViewD0Ev@Base 4:14.12.0
 _ZN6Kasten19VersionViewToolViewD1Ev@Base 4:14.12.0
 _ZN6Kasten19VersionViewToolViewD2Ev@Base 4:14.12.0
 _ZN6Kasten20FullScreenController11qt_metacallEN11QMetaObject4CallEiPPv@Base 4:14.12.0
 _ZN6Kasten20FullScreenController11qt_metacastEPKc@Base 4:14.12.0
 _ZN6Kasten20FullScreenController14setTargetModelEPNS_13AbstractModelE@Base 4:14.12.0
 _ZN6Kasten20FullScreenController16staticMetaObjectE@Base 4:14.12.0
 _ZN6Kasten20FullScreenController16switchFullScreenEb@Base 4:14.12.0
 _ZN6Kasten20FullScreenControllerC1EP13KXmlGuiWindow@Base 4:14.12.0
 _ZN6Kasten20FullScreenControllerC2EP13KXmlGuiWindow@Base 4:14.12.0
 _ZN6Kasten20SwitchViewController11qt_metacallEN11QMetaObject4CallEiPPv@Base 4:14.12.0
 _ZN6Kasten20SwitchViewController11qt_metacastEPKc@Base 4:14.12.0
 _ZN6Kasten20SwitchViewController13updateActionsEv@Base 4:14.12.0
 _ZN6Kasten20SwitchViewController14setTargetModelEPNS_13AbstractModelE@Base 4:14.12.0
 _ZN6Kasten20SwitchViewController16staticMetaObjectE@Base 4:14.12.0
 _ZN6Kasten20SwitchViewController7forwardEv@Base 4:14.12.0
 _ZN6Kasten20SwitchViewController8backwardEv@Base 4:14.12.0
 _ZN6Kasten20SwitchViewControllerC1EPNS_20AbstractGroupedViewsEP13KXMLGUIClient@Base 4:14.12.0
 _ZN6Kasten20SwitchViewControllerC2EPNS_20AbstractGroupedViewsEP13KXMLGUIClient@Base 4:14.12.0
 _ZN6Kasten21FileSystemBrowserTool11qt_metacallEN11QMetaObject4CallEiPPv@Base 4:14.12.0
 _ZN6Kasten21FileSystemBrowserTool11qt_metacastEPKc@Base 4:14.12.0
 _ZN6Kasten21FileSystemBrowserTool14setTargetModelEPNS_13AbstractModelE@Base 4:14.12.0
 _ZN6Kasten21FileSystemBrowserTool16staticMetaObjectE@Base 4:14.12.0
 _ZN6Kasten21FileSystemBrowserTool20hasCurrentUrlChangedEb@Base 4:14.12.0
 _ZN6Kasten21FileSystemBrowserTool4openERK4QUrl@Base 4:14.12.0
 _ZN6Kasten21FileSystemBrowserToolC1EPNS_19DocumentSyncManagerE@Base 4:14.12.0
 _ZN6Kasten21FileSystemBrowserToolC2EPNS_19DocumentSyncManagerE@Base 4:14.12.0
 _ZN6Kasten21FileSystemBrowserToolD0Ev@Base 4:14.12.0
 _ZN6Kasten21FileSystemBrowserToolD1Ev@Base 4:14.12.0
 _ZN6Kasten21FileSystemBrowserToolD2Ev@Base 4:14.12.0
 _ZN6Kasten21ModifiedBarController11qt_metacallEN11QMetaObject4CallEiPPv@Base 4:14.12.0
 _ZN6Kasten21ModifiedBarController11qt_metacastEPKc@Base 4:14.12.0
 _ZN6Kasten21ModifiedBarController14setTargetModelEPNS_13AbstractModelE@Base 4:14.12.0
 _ZN6Kasten21ModifiedBarController16staticMetaObjectE@Base 4:14.12.0
 _ZN6Kasten21ModifiedBarController21onContentFlagsChangedE6QFlagsINS_11ContentFlagEE@Base 4:14.12.0
 _ZN6Kasten21ModifiedBarController21onSynchronizerChangedEPNS_25AbstractModelSynchronizerE@Base 4:14.12.0
 _ZN6Kasten21ModifiedBarController21onSynchronizerDeletedEP7QObject@Base 4:14.12.0
 _ZN6Kasten21ModifiedBarController23onLocalSyncStateChangedENS_14LocalSyncStateE@Base 4:14.12.0
 _ZN6Kasten21ModifiedBarController24onRemoteSyncStateChangedENS_15RemoteSyncStateE@Base 4:14.12.0
 _ZN6Kasten21ModifiedBarControllerC1EPNS_9StatusBarE@Base 4:14.12.0
 _ZN6Kasten21ModifiedBarControllerC2EPNS_9StatusBarE@Base 4:14.12.0
 _ZN6Kasten21ReadOnlyBarController11qt_metacallEN11QMetaObject4CallEiPPv@Base 4:14.12.0
 _ZN6Kasten21ReadOnlyBarController11qt_metacastEPKc@Base 4:14.12.0
 _ZN6Kasten21ReadOnlyBarController11setReadOnlyEb@Base 4:14.12.0
 _ZN6Kasten21ReadOnlyBarController14setTargetModelEPNS_13AbstractModelE@Base 4:14.12.0
 _ZN6Kasten21ReadOnlyBarController16staticMetaObjectE@Base 4:14.12.0
 _ZN6Kasten21ReadOnlyBarControllerC1EPNS_9StatusBarE@Base 4:14.12.0
 _ZN6Kasten21ReadOnlyBarControllerC2EPNS_9StatusBarE@Base 4:14.12.0
 _ZN6Kasten21SynchronizeController11qt_metacallEN11QMetaObject4CallEiPPv@Base 4:14.12.0
 _ZN6Kasten21SynchronizeController11qt_metacastEPKc@Base 4:14.12.0
 _ZN6Kasten21SynchronizeController14setTargetModelEPNS_13AbstractModelE@Base 4:14.12.0
 _ZN6Kasten21SynchronizeController16staticMetaObjectE@Base 4:14.12.0
 _ZN6Kasten21SynchronizeController18onSyncStateChangedEv@Base 4:14.12.0
 _ZN6Kasten21SynchronizeController21onSynchronizerChangedEPNS_25AbstractModelSynchronizerE@Base 4:14.12.0
 _ZN6Kasten21SynchronizeController21onSynchronizerDeletedEP7QObject@Base 4:14.12.0
 _ZN6Kasten21SynchronizeController4saveEv@Base 4:14.12.0
 _ZN6Kasten21SynchronizeController6reloadEv@Base 4:14.12.0
 _ZN6Kasten21SynchronizeControllerC1EPNS_19DocumentSyncManagerEP13KXMLGUIClient@Base 4:14.12.0
 _ZN6Kasten21SynchronizeControllerC2EPNS_19DocumentSyncManagerEP13KXMLGUIClient@Base 4:14.12.0
 _ZN6Kasten22ToolListMenuController11qt_metacallEN11QMetaObject4CallEiPPv@Base 4:14.12.0
 _ZN6Kasten22ToolListMenuController11qt_metacastEPKc@Base 4:14.12.0
 _ZN6Kasten22ToolListMenuController13updateActionsEv@Base 4:14.12.0
 _ZN6Kasten22ToolListMenuController14setTargetModelEPNS_13AbstractModelE@Base 4:14.12.0
 _ZN6Kasten22ToolListMenuController16staticMetaObjectE@Base 4:14.12.0
 _ZN6Kasten22ToolListMenuControllerC1EPNS_2If15WidgetsDockableEP13KXMLGUIClient@Base 4:14.12.0
 _ZN6Kasten22ToolListMenuControllerC2EPNS_2If15WidgetsDockableEP13KXMLGUIClient@Base 4:14.12.0
 _ZN6Kasten22ViewListMenuController11qt_metacallEN11QMetaObject4CallEiPPv@Base 4:14.12.0
 _ZN6Kasten22ViewListMenuController11qt_metacastEPKc@Base 4:14.12.0
 _ZN6Kasten22ViewListMenuController13updateActionsEv@Base 4:14.12.0
 _ZN6Kasten22ViewListMenuController14setTargetModelEPNS_13AbstractModelE@Base 4:14.12.0
 _ZN6Kasten22ViewListMenuController16staticMetaObjectE@Base 4:14.12.0
 _ZN6Kasten22ViewListMenuController17onActionTriggeredEP7QAction@Base 4:14.12.0
 _ZN6Kasten22ViewListMenuControllerC1EPNS_11ViewManagerEPNS_20AbstractGroupedViewsEP13KXMLGUIClient@Base 4:14.12.0
 _ZN6Kasten22ViewListMenuControllerC2EPNS_11ViewManagerEPNS_20AbstractGroupedViewsEP13KXMLGUIClient@Base 4:14.12.0
 _ZN6Kasten23ViewAreaSplitController11qt_metacallEN11QMetaObject4CallEiPPv@Base 4:14.12.0
 _ZN6Kasten23ViewAreaSplitController11qt_metacastEPKc@Base 4:14.12.0
 _ZN6Kasten23ViewAreaSplitController13splitViewAreaEN2Qt11OrientationE@Base 4:14.12.0
 _ZN6Kasten23ViewAreaSplitController14onViewsChangedEv@Base 4:14.12.0
 _ZN6Kasten23ViewAreaSplitController14setTargetModelEPNS_13AbstractModelE@Base 4:14.12.0
 _ZN6Kasten23ViewAreaSplitController15splitVerticallyEv@Base 4:14.12.0
 _ZN6Kasten23ViewAreaSplitController16staticMetaObjectE@Base 4:14.12.0
 _ZN6Kasten23ViewAreaSplitController17splitHorizontallyEv@Base 4:14.12.0
 _ZN6Kasten23ViewAreaSplitController18onViewAreasChangedEv@Base 4:14.12.0
 _ZN6Kasten23ViewAreaSplitController22onViewAreaFocusChangedEPNS_16AbstractViewAreaE@Base 4:14.12.0
 _ZN6Kasten23ViewAreaSplitController5closeEv@Base 4:14.12.0
 _ZN6Kasten23ViewAreaSplitControllerC1EPNS_11ViewManagerEPNS_20AbstractGroupedViewsEP13KXMLGUIClient@Base 4:14.12.0
 _ZN6Kasten23ViewAreaSplitControllerC2EPNS_11ViewManagerEPNS_20AbstractGroupedViewsEP13KXMLGUIClient@Base 4:14.12.0
 _ZN6Kasten25FileSystemBrowserToolViewC1EPNS_21FileSystemBrowserToolE@Base 4:14.12.0
 _ZN6Kasten25FileSystemBrowserToolViewC2EPNS_21FileSystemBrowserToolE@Base 4:14.12.0
 _ZN6Kasten25FileSystemBrowserToolViewD0Ev@Base 4:14.12.0
 _ZN6Kasten25FileSystemBrowserToolViewD1Ev@Base 4:14.12.0
 _ZN6Kasten25FileSystemBrowserToolViewD2Ev@Base 4:14.12.0
 _ZNK6Kasten12TerminalTool10currentUrlEv@Base 4:14.12.0
 _ZNK6Kasten12TerminalTool10metaObjectEv@Base 4:14.12.0
 _ZNK6Kasten12TerminalTool5titleEv@Base 4:14.12.0
 _ZNK6Kasten13AbstractModel26findBaseModelWithInterfaceIPNS_2If11VersionableEEEPS0_v@Base 4:14.12.0
 _ZNK6Kasten13DocumentsTool10metaObjectEv@Base 4:14.12.0
 _ZNK6Kasten13DocumentsTool5titleEv@Base 4:14.12.0
 _ZNK6Kasten13DocumentsTool9documentsEv@Base 4:14.12.0
 _ZNK6Kasten14QuitController10metaObjectEv@Base 4:14.12.0
 _ZNK6Kasten14ZoomController10metaObjectEv@Base 4:14.12.0
 _ZNK6Kasten15CloseController10metaObjectEv@Base 4:14.12.0
 _ZNK6Kasten15VersionViewTool10metaObjectEv@Base 4:14.12.0
 _ZNK6Kasten15VersionViewTool5titleEv@Base 4:14.12.0
 _ZNK6Kasten16CopyAsController10metaObjectEv@Base 4:14.12.0
 _ZNK6Kasten16ExportController10metaObjectEv@Base 4:14.12.0
 _ZNK6Kasten16InsertController10metaObjectEv@Base 4:14.12.0
 _ZNK6Kasten16LoaderController10metaObjectEv@Base 4:14.12.0
 _ZNK6Kasten16SelectController10metaObjectEv@Base 4:14.12.0
 _ZNK6Kasten16TerminalToolView4toolEv@Base 4:14.12.0
 _ZNK6Kasten16TerminalToolView5titleEv@Base 4:14.12.0
 _ZNK6Kasten16TerminalToolView6widgetEv@Base 4:14.12.0
 _ZNK6Kasten17CreatorController10metaObjectEv@Base 4:14.12.0
 _ZNK6Kasten17DocumentsToolView4toolEv@Base 4:14.12.0
 _ZNK6Kasten17DocumentsToolView5titleEv@Base 4:14.12.0
 _ZNK6Kasten17DocumentsToolView6widgetEv@Base 4:14.12.0
 _ZNK6Kasten17VersionController10metaObjectEv@Base 4:14.12.0
 _ZNK6Kasten17ZoomBarController10metaObjectEv@Base 4:14.12.0
 _ZNK6Kasten18ReadOnlyController10metaObjectEv@Base 4:14.12.0
 _ZNK6Kasten19ClipboardController10metaObjectEv@Base 4:14.12.0
 _ZNK6Kasten19SetRemoteController10metaObjectEv@Base 4:14.12.0
 _ZNK6Kasten19VersionViewToolView4toolEv@Base 4:14.12.0
 _ZNK6Kasten19VersionViewToolView5titleEv@Base 4:14.12.0
 _ZNK6Kasten19VersionViewToolView6widgetEv@Base 4:14.12.0
 _ZNK6Kasten20FullScreenController10metaObjectEv@Base 4:14.12.0
 _ZNK6Kasten20SwitchViewController10metaObjectEv@Base 4:14.12.0
 _ZNK6Kasten21FileSystemBrowserTool10currentUrlEv@Base 4:14.12.0
 _ZNK6Kasten21FileSystemBrowserTool10metaObjectEv@Base 4:14.12.0
 _ZNK6Kasten21FileSystemBrowserTool13hasCurrentUrlEv@Base 4:14.12.0
 _ZNK6Kasten21FileSystemBrowserTool5titleEv@Base 4:14.12.0
 _ZNK6Kasten21ModifiedBarController10metaObjectEv@Base 4:14.12.0
 _ZNK6Kasten21ReadOnlyBarController10metaObjectEv@Base 4:14.12.0
 _ZNK6Kasten21SynchronizeController10metaObjectEv@Base 4:14.12.0
 _ZNK6Kasten22ToolListMenuController10metaObjectEv@Base 4:14.12.0
 _ZNK6Kasten22ViewListMenuController10metaObjectEv@Base 4:14.12.0
 _ZNK6Kasten23ViewAreaSplitController10metaObjectEv@Base 4:14.12.0
 _ZNK6Kasten25FileSystemBrowserToolView4toolEv@Base 4:14.12.0
 _ZNK6Kasten25FileSystemBrowserToolView5titleEv@Base 4:14.12.0
 _ZNK6Kasten25FileSystemBrowserToolView6widgetEv@Base 4:14.12.0
 _ZTIN6Kasten12TerminalToolE@Base 4:15.04.0
 _ZTIN6Kasten13DocumentsToolE@Base 4:15.04.0
 _ZTIN6Kasten14QuitControllerE@Base 4:15.04.0
 _ZTIN6Kasten14ZoomControllerE@Base 4:15.04.0
 _ZTIN6Kasten15CloseControllerE@Base 4:15.04.0
 _ZTIN6Kasten15VersionViewToolE@Base 4:15.04.0
 _ZTIN6Kasten16CopyAsControllerE@Base 4:15.04.0
 _ZTIN6Kasten16ExportControllerE@Base 4:15.04.0
 _ZTIN6Kasten16InsertControllerE@Base 4:15.04.0
 _ZTIN6Kasten16LoaderControllerE@Base 4:15.04.0
 _ZTIN6Kasten16SelectControllerE@Base 4:15.04.0
 _ZTIN6Kasten16TerminalToolViewE@Base 4:15.04.0
 _ZTIN6Kasten17CreatorControllerE@Base 4:15.04.0
 _ZTIN6Kasten17DocumentsToolViewE@Base 4:15.04.0
 _ZTIN6Kasten17VersionControllerE@Base 4:15.04.0
 _ZTIN6Kasten17ZoomBarControllerE@Base 4:15.04.0
 _ZTIN6Kasten18ReadOnlyControllerE@Base 4:15.04.0
 _ZTIN6Kasten19ClipboardControllerE@Base 4:15.04.0
 _ZTIN6Kasten19SetRemoteControllerE@Base 4:15.04.0
 _ZTIN6Kasten19VersionViewToolViewE@Base 4:15.04.0
 _ZTIN6Kasten20FullScreenControllerE@Base 4:15.04.0
 _ZTIN6Kasten20SwitchViewControllerE@Base 4:15.04.0
 _ZTIN6Kasten21FileSystemBrowserToolE@Base 4:15.04.0
 _ZTIN6Kasten21ModifiedBarControllerE@Base 4:15.04.0
 _ZTIN6Kasten21ReadOnlyBarControllerE@Base 4:15.04.0
 _ZTIN6Kasten21SynchronizeControllerE@Base 4:15.04.0
 _ZTIN6Kasten22ToolListMenuControllerE@Base 4:15.04.0
 _ZTIN6Kasten22ViewListMenuControllerE@Base 4:15.04.0
 _ZTIN6Kasten23ViewAreaSplitControllerE@Base 4:15.04.0
 _ZTIN6Kasten25FileSystemBrowserToolViewE@Base 4:15.04.0
 _ZTSN6Kasten12TerminalToolE@Base 4:15.04.0
 _ZTSN6Kasten13DocumentsToolE@Base 4:15.04.0
 _ZTSN6Kasten14QuitControllerE@Base 4:15.04.0
 _ZTSN6Kasten14ZoomControllerE@Base 4:15.04.0
 _ZTSN6Kasten15CloseControllerE@Base 4:15.04.0
 _ZTSN6Kasten15VersionViewToolE@Base 4:15.04.0
 _ZTSN6Kasten16CopyAsControllerE@Base 4:15.04.0
 _ZTSN6Kasten16ExportControllerE@Base 4:15.04.0
 _ZTSN6Kasten16InsertControllerE@Base 4:15.04.0
 _ZTSN6Kasten16LoaderControllerE@Base 4:15.04.0
 _ZTSN6Kasten16SelectControllerE@Base 4:15.04.0
 _ZTSN6Kasten16TerminalToolViewE@Base 4:15.04.0
 _ZTSN6Kasten17CreatorControllerE@Base 4:15.04.0
 _ZTSN6Kasten17DocumentsToolViewE@Base 4:15.04.0
 _ZTSN6Kasten17VersionControllerE@Base 4:15.04.0
 _ZTSN6Kasten17ZoomBarControllerE@Base 4:15.04.0
 _ZTSN6Kasten18ReadOnlyControllerE@Base 4:15.04.0
 _ZTSN6Kasten19ClipboardControllerE@Base 4:15.04.0
 _ZTSN6Kasten19SetRemoteControllerE@Base 4:15.04.0
 _ZTSN6Kasten19VersionViewToolViewE@Base 4:15.04.0
 _ZTSN6Kasten20FullScreenControllerE@Base 4:15.04.0
 _ZTSN6Kasten20SwitchViewControllerE@Base 4:15.04.0
 _ZTSN6Kasten21FileSystemBrowserToolE@Base 4:15.04.0
 _ZTSN6Kasten21ModifiedBarControllerE@Base 4:15.04.0
 _ZTSN6Kasten21ReadOnlyBarControllerE@Base 4:15.04.0
 _ZTSN6Kasten21SynchronizeControllerE@Base 4:15.04.0
 _ZTSN6Kasten22ToolListMenuControllerE@Base 4:15.04.0
 _ZTSN6Kasten22ViewListMenuControllerE@Base 4:15.04.0
 _ZTSN6Kasten23ViewAreaSplitControllerE@Base 4:15.04.0
 _ZTSN6Kasten25FileSystemBrowserToolViewE@Base 4:15.04.0
 _ZTVN6Kasten12TerminalToolE@Base 4:14.12.0
 _ZTVN6Kasten13DocumentsToolE@Base 4:14.12.0
 _ZTVN6Kasten14QuitControllerE@Base 4:14.12.0
 _ZTVN6Kasten14ZoomControllerE@Base 4:14.12.0
 _ZTVN6Kasten15CloseControllerE@Base 4:14.12.0
 _ZTVN6Kasten15VersionViewToolE@Base 4:14.12.0
 _ZTVN6Kasten16CopyAsControllerE@Base 4:14.12.0
 _ZTVN6Kasten16ExportControllerE@Base 4:14.12.0
 _ZTVN6Kasten16InsertControllerE@Base 4:14.12.0
 _ZTVN6Kasten16LoaderControllerE@Base 4:14.12.0
 _ZTVN6Kasten16SelectControllerE@Base 4:14.12.0
 _ZTVN6Kasten16TerminalToolViewE@Base 4:14.12.0
 _ZTVN6Kasten17CreatorControllerE@Base 4:14.12.0
 _ZTVN6Kasten17DocumentsToolViewE@Base 4:14.12.0
 _ZTVN6Kasten17VersionControllerE@Base 4:14.12.0
 _ZTVN6Kasten17ZoomBarControllerE@Base 4:14.12.0
 _ZTVN6Kasten18ReadOnlyControllerE@Base 4:14.12.0
 _ZTVN6Kasten19ClipboardControllerE@Base 4:14.12.0
 _ZTVN6Kasten19SetRemoteControllerE@Base 4:14.12.0
 _ZTVN6Kasten19VersionViewToolViewE@Base 4:14.12.0
 _ZTVN6Kasten20FullScreenControllerE@Base 4:14.12.0
 _ZTVN6Kasten20SwitchViewControllerE@Base 4:14.12.0
 _ZTVN6Kasten21FileSystemBrowserToolE@Base 4:14.12.0
 _ZTVN6Kasten21ModifiedBarControllerE@Base 4:14.12.0
 _ZTVN6Kasten21ReadOnlyBarControllerE@Base 4:14.12.0
 _ZTVN6Kasten21SynchronizeControllerE@Base 4:14.12.0
 _ZTVN6Kasten22ToolListMenuControllerE@Base 4:14.12.0
 _ZTVN6Kasten22ViewListMenuControllerE@Base 4:14.12.0
 _ZTVN6Kasten23ViewAreaSplitControllerE@Base 4:14.12.0
 _ZTVN6Kasten25FileSystemBrowserToolViewE@Base 4:14.12.0
