libkasten3gui.so.3 libkasten3gui3 #MINVER#
 _ZN6Kasten11ShellWindow11qt_metacallEN11QMetaObject4CallEiPPv@Base 4:14.12.0
 _ZN6Kasten11ShellWindow11qt_metacastEPKc@Base 4:14.12.0
 _ZN6Kasten11ShellWindow12showDocumentEPNS_16AbstractDocumentE@Base 4:14.12.0
 _ZN6Kasten11ShellWindow16staticMetaObjectE@Base 4:14.12.0
 _ZN6Kasten11ShellWindow17updateControllersEPNS_12AbstractViewE@Base 4:14.12.0
 _ZN6Kasten11ShellWindow19addXmlGuiControllerEPNS_24AbstractXmlGuiControllerE@Base 4:14.12.0
 _ZN6Kasten11ShellWindow7addToolEPNS_16AbstractToolViewE@Base 4:14.12.0
 _ZN6Kasten11ShellWindowC1EPNS_11ViewManagerE@Base 4:14.12.0
 _ZN6Kasten11ShellWindowC2EPNS_11ViewManagerE@Base 4:14.12.0
 _ZN6Kasten11ShellWindowD0Ev@Base 4:14.12.0
 _ZN6Kasten11ShellWindowD1Ev@Base 4:14.12.0
 _ZN6Kasten11ShellWindowD2Ev@Base 4:14.12.0
 _ZN6Kasten11TabbedViews11dataDroppedEPK9QMimeData@Base 4:14.12.0
 _ZN6Kasten11TabbedViews11dataOfferedEPK9QMimeDataRb@Base 4:14.12.0
 _ZN6Kasten11TabbedViews11qt_metacallEN11QMetaObject4CallEiPPv@Base 4:14.12.0
 _ZN6Kasten11TabbedViews11qt_metacastEPKc@Base 4:14.12.0
 _ZN6Kasten11TabbedViews11removeViewsERK5QListIPNS_12AbstractViewEE@Base 4:14.12.0
 _ZN6Kasten11TabbedViews12setViewFocusEPNS_12AbstractViewE@Base 4:14.12.0
 _ZN6Kasten11TabbedViews16staticMetaObjectE@Base 4:14.12.0
 _ZN6Kasten11TabbedViews24setCurrentToolInlineViewEPNS_22AbstractToolInlineViewE@Base 4:14.12.0
 _ZN6Kasten11TabbedViews8addViewsERK5QListIPNS_12AbstractViewEE@Base 4:14.12.0
 _ZN6Kasten11TabbedViews8setFocusEv@Base 4:14.12.0
 _ZN6Kasten11TabbedViewsC1EPNS_18TabbedViewsPrivateE@Base 4:14.12.0
 _ZN6Kasten11TabbedViewsC1Ev@Base 4:14.12.0
 _ZN6Kasten11TabbedViewsC2EPNS_18TabbedViewsPrivateE@Base 4:14.12.0
 _ZN6Kasten11TabbedViewsC2Ev@Base 4:14.12.0
 _ZN6Kasten11TabbedViewsD0Ev@Base 4:14.12.0
 _ZN6Kasten11TabbedViewsD1Ev@Base 4:14.12.0
 _ZN6Kasten11TabbedViewsD2Ev@Base 4:14.12.0
 _ZN6Kasten11ViewManager11qt_metacallEN11QMetaObject4CallEiPPv@Base 4:14.12.0
 _ZN6Kasten11ViewManager11qt_metacastEPKc@Base 4:14.12.0
 _ZN6Kasten11ViewManager11removeViewsERK5QListIPNS_12AbstractViewEE@Base 4:14.12.0
 _ZN6Kasten11ViewManager14createViewsForERK5QListIPNS_16AbstractDocumentEE@Base 4:14.12.0
 _ZN6Kasten11ViewManager14removeViewsForERK5QListIPNS_16AbstractDocumentEE@Base 4:14.12.0
 _ZN6Kasten11ViewManager14setViewFactoryEPNS_19AbstractViewFactoryE@Base 4:14.12.0
 _ZN6Kasten11ViewManager16createCopyOfViewEPNS_12AbstractViewE6QFlagsIN2Qt13AlignmentFlagEE@Base 4:14.12.0
 _ZN6Kasten11ViewManager16staticMetaObjectE@Base 4:14.12.0
 _ZN6Kasten11ViewManager6openedERK5QListIPNS_12AbstractViewEE@Base 4:14.12.0
 _ZN6Kasten11ViewManager7closingERK5QListIPNS_12AbstractViewEE@Base 4:14.12.0
 _ZN6Kasten11ViewManagerC1Ev@Base 4:14.12.0
 _ZN6Kasten11ViewManagerC2Ev@Base 4:14.12.0
 _ZN6Kasten11ViewManagerD0Ev@Base 4:14.12.0
 _ZN6Kasten11ViewManagerD1Ev@Base 4:14.12.0
 _ZN6Kasten11ViewManagerD2Ev@Base 4:14.12.0
 _ZN6Kasten12AbstractView11qt_metacallEN11QMetaObject4CallEiPPv@Base 4:14.12.0
 _ZN6Kasten12AbstractView11qt_metacastEPKc@Base 4:14.12.0
 _ZN6Kasten12AbstractView12focusChangedEb@Base 4:14.12.0
 _ZN6Kasten12AbstractView16staticMetaObjectE@Base 4:14.12.0
 _ZN6Kasten12AbstractViewC1EPNS_13AbstractModelE@Base 4:14.12.0
 _ZN6Kasten12AbstractViewC2EPNS_13AbstractModelE@Base 4:14.12.0
 _ZN6Kasten12AbstractViewD0Ev@Base 4:14.12.0
 _ZN6Kasten12AbstractViewD1Ev@Base 4:14.12.0
 _ZN6Kasten12AbstractViewD2Ev@Base 4:14.12.0
 _ZN6Kasten12ToggleButton11qt_metacallEN11QMetaObject4CallEiPPv@Base 4:14.12.0
 _ZN6Kasten12ToggleButton11qt_metacastEPKc@Base 4:14.12.0
 _ZN6Kasten12ToggleButton15setCheckedStateERK5QIconRK7QStringS6_@Base 4:14.12.0
 _ZN6Kasten12ToggleButton15setCheckedStateERK7QStringS3_@Base 4:14.12.0
 _ZN6Kasten12ToggleButton16staticMetaObjectE@Base 4:14.12.0
 _ZN6Kasten12ToggleButtonC1ERK5QIconRK7QStringS6_P7QWidget@Base 4:14.12.0
 _ZN6Kasten12ToggleButtonC1ERK7QStringS3_P7QWidget@Base 4:14.12.0
 _ZN6Kasten12ToggleButtonC2ERK5QIconRK7QStringS6_P7QWidget@Base 4:14.12.0
 _ZN6Kasten12ToggleButtonC2ERK7QStringS3_P7QWidget@Base 4:14.12.0
 _ZN6Kasten12ToggleButtonD0Ev@Base 4:14.12.0
 _ZN6Kasten12ToggleButtonD1Ev@Base 4:14.12.0
 _ZN6Kasten12ToggleButtonD2Ev@Base 4:14.12.0
 _ZN6Kasten13DialogHandler9setWidgetEP7QWidget@Base 4:14.12.0
 _ZN6Kasten13DialogHandlerC1EP7QWidget@Base 4:14.12.0
 _ZN6Kasten13DialogHandlerC2EP7QWidget@Base 4:14.12.0
 _ZN6Kasten13DialogHandlerD0Ev@Base 4:14.12.0
 _ZN6Kasten13DialogHandlerD1Ev@Base 4:14.12.0
 _ZN6Kasten13DialogHandlerD2Ev@Base 4:14.12.0
 _ZN6Kasten14MultiViewAreas11dataDroppedEPK9QMimeData@Base 4:14.12.0
 _ZN6Kasten14MultiViewAreas11dataOfferedEPK9QMimeDataRb@Base 4:14.12.0
 _ZN6Kasten14MultiViewAreas11qt_metacallEN11QMetaObject4CallEiPPv@Base 4:14.12.0
 _ZN6Kasten14MultiViewAreas11qt_metacastEPKc@Base 4:14.12.0
 _ZN6Kasten14MultiViewAreas11removeViewsERK5QListIPNS_12AbstractViewEE@Base 4:14.12.0
 _ZN6Kasten14MultiViewAreas12setViewFocusEPNS_12AbstractViewE@Base 4:14.12.0
 _ZN6Kasten14MultiViewAreas13closeViewAreaEPNS_16AbstractViewAreaE@Base 4:14.12.0
 _ZN6Kasten14MultiViewAreas13splitViewAreaEPNS_16AbstractViewAreaEN2Qt11OrientationE@Base 4:14.12.0
 _ZN6Kasten14MultiViewAreas14viewAreasAddedERK5QListIPNS_16AbstractViewAreaEE@Base 4:14.12.0
 _ZN6Kasten14MultiViewAreas16setViewAreaFocusEPNS_16AbstractViewAreaE@Base 4:14.12.0
 _ZN6Kasten14MultiViewAreas16staticMetaObjectE@Base 4:14.12.0
 _ZN6Kasten14MultiViewAreas16viewAreasRemovedERK5QListIPNS_16AbstractViewAreaEE@Base 4:14.12.0
 _ZN6Kasten14MultiViewAreas20viewAreaFocusChangedEPNS_16AbstractViewAreaE@Base 4:14.12.0
 _ZN6Kasten14MultiViewAreas24setCurrentToolInlineViewEPNS_22AbstractToolInlineViewE@Base 4:14.12.0
 _ZN6Kasten14MultiViewAreas8addViewsERK5QListIPNS_12AbstractViewEE@Base 4:14.12.0
 _ZN6Kasten14MultiViewAreas8setFocusEv@Base 4:14.12.0
 _ZN6Kasten14MultiViewAreasC1Ev@Base 4:14.12.0
 _ZN6Kasten14MultiViewAreasC2Ev@Base 4:14.12.0
 _ZN6Kasten14MultiViewAreasD0Ev@Base 4:14.12.0
 _ZN6Kasten14MultiViewAreasD1Ev@Base 4:14.12.0
 _ZN6Kasten14MultiViewAreasD2Ev@Base 4:14.12.0
 _ZN6Kasten14SingleViewArea11dataDroppedEPK9QMimeData@Base 4:14.12.0
 _ZN6Kasten14SingleViewArea11dataOfferedEPK9QMimeDataRb@Base 4:14.12.0
 _ZN6Kasten14SingleViewArea11qt_metacallEN11QMetaObject4CallEiPPv@Base 4:14.12.0
 _ZN6Kasten14SingleViewArea11qt_metacastEPKc@Base 4:14.12.0
 _ZN6Kasten14SingleViewArea16staticMetaObjectE@Base 4:14.12.0
 _ZN6Kasten14SingleViewArea24setCurrentToolInlineViewEPNS_22AbstractToolInlineViewE@Base 4:14.12.0
 _ZN6Kasten14SingleViewArea7setViewEPNS_12AbstractViewE@Base 4:14.12.0
 _ZN6Kasten14SingleViewArea8setFocusEv@Base 4:14.12.0
 _ZN6Kasten14SingleViewAreaC1Ev@Base 4:14.12.0
 _ZN6Kasten14SingleViewAreaC2Ev@Base 4:14.12.0
 _ZN6Kasten14SingleViewAreaD0Ev@Base 4:14.12.0
 _ZN6Kasten14SingleViewAreaD1Ev@Base 4:14.12.0
 _ZN6Kasten14SingleViewAreaD2Ev@Base 4:14.12.0
 _ZN6Kasten16AbstractToolViewC1Ev@Base 4:14.12.0
 _ZN6Kasten16AbstractToolViewC2Ev@Base 4:14.12.0
 _ZN6Kasten16AbstractToolViewD0Ev@Base 4:14.12.0
 _ZN6Kasten16AbstractToolViewD1Ev@Base 4:14.12.0
 _ZN6Kasten16AbstractToolViewD2Ev@Base 4:14.12.0
 _ZN6Kasten16AbstractViewArea11qt_metacallEN11QMetaObject4CallEiPPv@Base 4:14.12.0
 _ZN6Kasten16AbstractViewArea11qt_metacastEPKc@Base 4:14.12.0
 _ZN6Kasten16AbstractViewArea12focusChangedEb@Base 4:14.12.0
 _ZN6Kasten16AbstractViewArea16staticMetaObjectE@Base 4:14.12.0
 _ZN6Kasten16AbstractViewAreaC1EPNS_23AbstractViewAreaPrivateE@Base 4:14.12.0
 _ZN6Kasten16AbstractViewAreaC1Ev@Base 4:14.12.0
 _ZN6Kasten16AbstractViewAreaC2EPNS_23AbstractViewAreaPrivateE@Base 4:14.12.0
 _ZN6Kasten16AbstractViewAreaC2Ev@Base 4:14.12.0
 _ZN6Kasten16AbstractViewAreaD0Ev@Base 4:14.12.0
 _ZN6Kasten16AbstractViewAreaD1Ev@Base 4:14.12.0
 _ZN6Kasten16AbstractViewAreaD2Ev@Base 4:14.12.0
 _ZN6Kasten16SingleViewWindow11qt_metacallEN11QMetaObject4CallEiPPv@Base 4:14.12.0
 _ZN6Kasten16SingleViewWindow11qt_metacastEPKc@Base 4:14.12.0
 _ZN6Kasten16SingleViewWindow16staticMetaObjectE@Base 4:14.12.0
 _ZN6Kasten16SingleViewWindow19addXmlGuiControllerEPNS_24AbstractXmlGuiControllerE@Base 4:14.12.0
 _ZN6Kasten16SingleViewWindow7addToolEPNS_16AbstractToolViewE@Base 4:14.12.0
 _ZN6Kasten16SingleViewWindow7setViewEPNS_12AbstractViewE@Base 4:14.12.0
 _ZN6Kasten16SingleViewWindowC1EPNS_12AbstractViewE@Base 4:14.12.0
 _ZN6Kasten16SingleViewWindowC2EPNS_12AbstractViewE@Base 4:14.12.0
 _ZN6Kasten16SingleViewWindowD0Ev@Base 4:14.12.0
 _ZN6Kasten16SingleViewWindowD1Ev@Base 4:14.12.0
 _ZN6Kasten16SingleViewWindowD2Ev@Base 4:14.12.0
 _ZN6Kasten17AbstractLinePopup10setVisibleEb@Base 4:14.12.0
 _ZN6Kasten17AbstractLinePopup11eventFilterEP7QObjectP6QEvent@Base 4:14.12.0
 _ZN6Kasten17AbstractLinePopup11qt_metacallEN11QMetaObject4CallEiPPv@Base 4:14.12.0
 _ZN6Kasten17AbstractLinePopup11qt_metacastEPKc@Base 4:14.12.0
 _ZN6Kasten17AbstractLinePopup11setPositionERK6QPoint@Base 4:14.12.0
 _ZN6Kasten17AbstractLinePopup16staticMetaObjectE@Base 4:14.12.0
 _ZN6Kasten17AbstractLinePopup4execEv@Base 4:14.12.0
 _ZN6Kasten17AbstractLinePopup7setIconERK5QIcon@Base 4:14.12.0
 _ZN6Kasten17AbstractLinePopup9setResultEi@Base 4:14.12.0
 _ZN6Kasten17AbstractLinePopup9setWidgetEP7QWidget@Base 4:14.12.0
 _ZN6Kasten17AbstractLinePopupC1EP7QWidget@Base 4:14.12.0
 _ZN6Kasten17AbstractLinePopupC2EP7QWidget@Base 4:14.12.0
 _ZN6Kasten17AbstractLinePopupD0Ev@Base 4:14.12.0
 _ZN6Kasten17AbstractLinePopupD1Ev@Base 4:14.12.0
 _ZN6Kasten17AbstractLinePopupD2Ev@Base 4:14.12.0
 _ZN6Kasten18AbstractController11qt_metacallEN11QMetaObject4CallEiPPv@Base 4:14.12.0
 _ZN6Kasten18AbstractController11qt_metacastEPKc@Base 4:14.12.0
 _ZN6Kasten18AbstractController14setTargetModelEPNS_13AbstractModelE@Base 4:14.12.0
 _ZN6Kasten18AbstractController16staticMetaObjectE@Base 4:14.12.0
 _ZN6Kasten18AbstractToolWidget11qt_metacallEN11QMetaObject4CallEiPPv@Base 4:14.12.0
 _ZN6Kasten18AbstractToolWidget11qt_metacastEPKc@Base 4:14.12.0
 _ZN6Kasten18AbstractToolWidget16staticMetaObjectE@Base 4:14.12.0
 _ZN6Kasten18AbstractToolWidget9addButtonEP11QPushButtonNS0_11DefaultTypeE@Base 4:14.12.0
 _ZN6Kasten18AbstractToolWidgetC1EP7QWidget@Base 4:14.12.0
 _ZN6Kasten18AbstractToolWidgetC2EP7QWidget@Base 4:14.12.0
 _ZN6Kasten18AbstractToolWidgetD0Ev@Base 4:14.12.0
 _ZN6Kasten18AbstractToolWidgetD1Ev@Base 4:14.12.0
 _ZN6Kasten18AbstractToolWidgetD2Ev@Base 4:14.12.0
 _ZN6Kasten19AbstractViewFactory16createCopyOfViewEPNS_12AbstractViewE6QFlagsIN2Qt13AlignmentFlagEE@Base 4:14.12.0
 _ZN6Kasten20AbstractGroupedViews11qt_metacallEN11QMetaObject4CallEiPPv@Base 4:14.12.0
 _ZN6Kasten20AbstractGroupedViews11qt_metacastEPKc@Base 4:14.12.0
 _ZN6Kasten20AbstractGroupedViews12closeRequestERK5QListIPNS_12AbstractViewEE@Base 4:14.12.0
 _ZN6Kasten20AbstractGroupedViews16staticMetaObjectE@Base 4:14.12.0
 _ZN6Kasten20AbstractGroupedViews16viewFocusChangedEPNS_12AbstractViewE@Base 4:14.12.0
 _ZN6Kasten20AbstractGroupedViews5addedERK5QListIPNS_12AbstractViewEE@Base 4:14.12.0
 _ZN6Kasten20AbstractGroupedViews8removingERK5QListIPNS_12AbstractViewEE@Base 4:14.12.0
 _ZN6Kasten20AbstractGroupedViewsC1EPNS_27AbstractGroupedViewsPrivateE@Base 4:14.12.0
 _ZN6Kasten20AbstractGroupedViewsC1Ev@Base 4:14.12.0
 _ZN6Kasten20AbstractGroupedViewsC2EPNS_27AbstractGroupedViewsPrivateE@Base 4:14.12.0
 _ZN6Kasten20AbstractGroupedViewsC2Ev@Base 4:14.12.0
 _ZN6Kasten20AbstractGroupedViewsD0Ev@Base 4:14.12.0
 _ZN6Kasten20AbstractGroupedViewsD1Ev@Base 4:14.12.0
 _ZN6Kasten20AbstractGroupedViewsD2Ev@Base 4:14.12.0
 _ZN6Kasten21AbstractSelectionView11qt_metacallEN11QMetaObject4CallEiPPv@Base 4:14.12.0
 _ZN6Kasten21AbstractSelectionView11qt_metacastEPKc@Base 4:14.12.0
 _ZN6Kasten21AbstractSelectionView16staticMetaObjectE@Base 4:14.12.0
 _ZN6Kasten21AbstractSelectionViewC1Ev@Base 4:14.12.0
 _ZN6Kasten21AbstractSelectionViewC2Ev@Base 4:14.12.0
 _ZN6Kasten21AbstractSelectionViewD0Ev@Base 4:14.12.0
 _ZN6Kasten21AbstractSelectionViewD1Ev@Base 4:14.12.0
 _ZN6Kasten21AbstractSelectionViewD2Ev@Base 4:14.12.0
 _ZN6Kasten21ModelCodecViewManager11qt_metacallEN11QMetaObject4CallEiPPv@Base 4:14.12.0
 _ZN6Kasten21ModelCodecViewManager11qt_metacastEPKc@Base 4:14.12.0
 _ZN6Kasten21ModelCodecViewManager16staticMetaObjectE@Base 4:14.12.0
 _ZN6Kasten21ModelCodecViewManager31setEncoderConfigEditorFactoriesERK5QListIPNS_45AbstractModelStreamEncoderConfigEditorFactoryEE@Base 4:14.12.0
 _ZN6Kasten21ModelCodecViewManager32setExporterConfigEditorFactoriesERK5QListIPNS_40AbstractModelExporterConfigEditorFactoryEE@Base 4:14.12.0
 _ZN6Kasten21ModelCodecViewManager33setGeneratorConfigEditorFactoriesERK5QListIPNS_45AbstractModelDataGeneratorConfigEditorFactoryEE@Base 4:14.12.0
 _ZN6Kasten21ModelCodecViewManagerC1Ev@Base 4:14.12.0
 _ZN6Kasten21ModelCodecViewManagerC2Ev@Base 4:14.12.0
 _ZN6Kasten21ModelCodecViewManagerD0Ev@Base 4:14.12.0
 _ZN6Kasten21ModelCodecViewManagerD1Ev@Base 4:14.12.0
 _ZN6Kasten21ModelCodecViewManagerD2Ev@Base 4:14.12.0
 _ZN6Kasten21MultiDocumentStrategy11qt_metacallEN11QMetaObject4CallEiPPv@Base 4:14.12.0
 _ZN6Kasten21MultiDocumentStrategy11qt_metacastEPKc@Base 4:14.12.0
 _ZN6Kasten21MultiDocumentStrategy13closeAllOtherEPNS_16AbstractDocumentE@Base 4:14.12.0
 _ZN6Kasten21MultiDocumentStrategy13closeDocumentEPNS_16AbstractDocumentE@Base 4:14.12.0
 _ZN6Kasten21MultiDocumentStrategy16staticMetaObjectE@Base 4:14.12.0
 _ZN6Kasten21MultiDocumentStrategy22createNewFromClipboardEv@Base 4:14.12.0
 _ZN6Kasten21MultiDocumentStrategy22createNewWithGeneratorEPNS_26AbstractModelDataGeneratorE@Base 4:14.12.0
 _ZN6Kasten21MultiDocumentStrategy4loadERK4QUrl@Base 4:14.12.0
 _ZN6Kasten21MultiDocumentStrategy8closeAllEv@Base 4:14.12.0
 _ZN6Kasten21MultiDocumentStrategy9createNewEv@Base 4:14.12.0
 _ZN6Kasten21MultiDocumentStrategyC1EPNS_15DocumentManagerEPNS_11ViewManagerE@Base 4:14.12.0
 _ZN6Kasten21MultiDocumentStrategyC2EPNS_15DocumentManagerEPNS_11ViewManagerE@Base 4:14.12.0
 _ZN6Kasten21MultiDocumentStrategyD0Ev@Base 4:14.12.0
 _ZN6Kasten21MultiDocumentStrategyD1Ev@Base 4:14.12.0
 _ZN6Kasten21MultiDocumentStrategyD2Ev@Base 4:14.12.0
 _ZN6Kasten22AbstractToolInlineView8activateEv@Base 4:14.12.0
 _ZN6Kasten22AbstractToolInlineViewC1Ev@Base 4:14.12.0
 _ZN6Kasten22AbstractToolInlineViewC2Ev@Base 4:14.12.0
 _ZN6Kasten22AbstractToolInlineViewD0Ev@Base 4:14.12.0
 _ZN6Kasten22AbstractToolInlineViewD1Ev@Base 4:14.12.0
 _ZN6Kasten22AbstractToolInlineViewD2Ev@Base 4:14.12.0
 _ZN6Kasten22SingleDocumentStrategy11qt_metacallEN11QMetaObject4CallEiPPv@Base 4:14.12.0
 _ZN6Kasten22SingleDocumentStrategy11qt_metacastEPKc@Base 4:14.12.0
 _ZN6Kasten22SingleDocumentStrategy13closeAllOtherEPNS_16AbstractDocumentE@Base 4:14.12.0
 _ZN6Kasten22SingleDocumentStrategy13closeDocumentEPNS_16AbstractDocumentE@Base 4:14.12.0
 _ZN6Kasten22SingleDocumentStrategy16staticMetaObjectE@Base 4:14.12.0
 _ZN6Kasten22SingleDocumentStrategy22createNewFromClipboardEv@Base 4:14.12.0
 _ZN6Kasten22SingleDocumentStrategy22createNewWithGeneratorEPNS_26AbstractModelDataGeneratorE@Base 4:14.12.0
 _ZN6Kasten22SingleDocumentStrategy4loadERK4QUrl@Base 4:14.12.0
 _ZN6Kasten22SingleDocumentStrategy8closeAllEv@Base 4:14.12.0
 _ZN6Kasten22SingleDocumentStrategy9createNewEv@Base 4:14.12.0
 _ZN6Kasten22SingleDocumentStrategyC1EPNS_15DocumentManagerEPNS_11ViewManagerE@Base 4:14.12.0
 _ZN6Kasten22SingleDocumentStrategyC2EPNS_15DocumentManagerEPNS_11ViewManagerE@Base 4:14.12.0
 _ZN6Kasten22SingleDocumentStrategyD0Ev@Base 4:14.12.0
 _ZN6Kasten22SingleDocumentStrategyD1Ev@Base 4:14.12.0
 _ZN6Kasten22SingleDocumentStrategyD2Ev@Base 4:14.12.0
 _ZN6Kasten24AbstractDocumentStrategy11qt_metacallEN11QMetaObject4CallEiPPv@Base 4:14.12.0
 _ZN6Kasten24AbstractDocumentStrategy11qt_metacastEPKc@Base 4:14.12.0
 _ZN6Kasten24AbstractDocumentStrategy14focusRequestedEPNS_16AbstractDocumentE@Base 4:14.12.0
 _ZN6Kasten24AbstractDocumentStrategy16staticMetaObjectE@Base 4:14.12.0
 _ZN6Kasten24AbstractDocumentStrategy5addedERK5QListIPNS_16AbstractDocumentEE@Base 4:14.12.0
 _ZN6Kasten24AbstractDocumentStrategy7closingERK5QListIPNS_16AbstractDocumentEE@Base 4:14.12.0
 _ZN6Kasten24AbstractDocumentStrategy7urlUsedERK4QUrl@Base 4:14.12.0
 _ZN6Kasten24AbstractDocumentStrategyC1EPNS_31AbstractDocumentStrategyPrivateE@Base 4:14.12.0
 _ZN6Kasten24AbstractDocumentStrategyC1Ev@Base 4:14.12.0
 _ZN6Kasten24AbstractDocumentStrategyC2EPNS_31AbstractDocumentStrategyPrivateE@Base 4:14.12.0
 _ZN6Kasten24AbstractDocumentStrategyC2Ev@Base 4:14.12.0
 _ZN6Kasten24AbstractDocumentStrategyD0Ev@Base 4:14.12.0
 _ZN6Kasten24AbstractDocumentStrategyD1Ev@Base 4:14.12.0
 _ZN6Kasten24AbstractDocumentStrategyD2Ev@Base 4:14.12.0
 _ZN6Kasten24AbstractXmlGuiController11qt_metacallEN11QMetaObject4CallEiPPv@Base 4:14.12.0
 _ZN6Kasten24AbstractXmlGuiController11qt_metacastEPKc@Base 4:14.12.0
 _ZN6Kasten24AbstractXmlGuiController16staticMetaObjectE@Base 4:14.12.0
 _ZN6Kasten33AbstractModelExporterConfigEditor11qt_metacallEN11QMetaObject4CallEiPPv@Base 4:14.12.0
 _ZN6Kasten33AbstractModelExporterConfigEditor11qt_metacastEPKc@Base 4:14.12.0
 _ZN6Kasten33AbstractModelExporterConfigEditor15validityChangedEb@Base 4:14.12.0
 _ZN6Kasten33AbstractModelExporterConfigEditor16staticMetaObjectE@Base 4:14.12.0
 _ZN6Kasten33AbstractModelExporterConfigEditorC1EP7QWidget@Base 4:14.12.0
 _ZN6Kasten33AbstractModelExporterConfigEditorC2EP7QWidget@Base 4:14.12.0
 _ZN6Kasten33AbstractModelExporterConfigEditorD0Ev@Base 4:14.12.0
 _ZN6Kasten33AbstractModelExporterConfigEditorD1Ev@Base 4:14.12.0
 _ZN6Kasten33AbstractModelExporterConfigEditorD2Ev@Base 4:14.12.0
 _ZN6Kasten38AbstractModelDataGeneratorConfigEditor11qt_metacallEN11QMetaObject4CallEiPPv@Base 4:14.12.0
 _ZN6Kasten38AbstractModelDataGeneratorConfigEditor11qt_metacastEPKc@Base 4:14.12.0
 _ZN6Kasten38AbstractModelDataGeneratorConfigEditor15validityChangedEb@Base 4:14.12.0
 _ZN6Kasten38AbstractModelDataGeneratorConfigEditor16staticMetaObjectE@Base 4:14.12.0
 _ZN6Kasten38AbstractModelDataGeneratorConfigEditorC1EP7QWidget@Base 4:14.12.0
 _ZN6Kasten38AbstractModelDataGeneratorConfigEditorC2EP7QWidget@Base 4:14.12.0
 _ZN6Kasten38AbstractModelDataGeneratorConfigEditorD0Ev@Base 4:14.12.0
 _ZN6Kasten38AbstractModelDataGeneratorConfigEditorD1Ev@Base 4:14.12.0
 _ZN6Kasten38AbstractModelDataGeneratorConfigEditorD2Ev@Base 4:14.12.0
 _ZN6Kasten38AbstractModelStreamEncoderConfigEditor11qt_metacallEN11QMetaObject4CallEiPPv@Base 4:14.12.0
 _ZN6Kasten38AbstractModelStreamEncoderConfigEditor11qt_metacastEPKc@Base 4:14.12.0
 _ZN6Kasten38AbstractModelStreamEncoderConfigEditor15validityChangedEb@Base 4:14.12.0
 _ZN6Kasten38AbstractModelStreamEncoderConfigEditor16staticMetaObjectE@Base 4:14.12.0
 _ZN6Kasten38AbstractModelStreamEncoderConfigEditorC1EP7QWidget@Base 4:14.12.0
 _ZN6Kasten38AbstractModelStreamEncoderConfigEditorC2EP7QWidget@Base 4:14.12.0
 _ZN6Kasten38AbstractModelStreamEncoderConfigEditorD0Ev@Base 4:14.12.0
 _ZN6Kasten38AbstractModelStreamEncoderConfigEditorD1Ev@Base 4:14.12.0
 _ZN6Kasten38AbstractModelStreamEncoderConfigEditorD2Ev@Base 4:14.12.0
 _ZN6Kasten42ModelEncoderFileSystemExporterConfigEditor11qt_metacallEN11QMetaObject4CallEiPPv@Base 4:14.12.0
 _ZN6Kasten42ModelEncoderFileSystemExporterConfigEditor11qt_metacastEPKc@Base 4:14.12.0
 _ZN6Kasten42ModelEncoderFileSystemExporterConfigEditor16staticMetaObjectE@Base 4:14.12.0
 _ZN6Kasten42ModelEncoderFileSystemExporterConfigEditorC1EPNS_38AbstractModelStreamEncoderConfigEditorE@Base 4:14.12.0
 _ZN6Kasten42ModelEncoderFileSystemExporterConfigEditorC2EPNS_38AbstractModelStreamEncoderConfigEditorE@Base 4:14.12.0
 _ZN6Kasten42ModelEncoderFileSystemExporterConfigEditorD0Ev@Base 4:14.12.0
 _ZN6Kasten42ModelEncoderFileSystemExporterConfigEditorD1Ev@Base 4:14.12.0
 _ZN6Kasten42ModelEncoderFileSystemExporterConfigEditorD2Ev@Base 4:14.12.0
 _ZN6Kasten49ModelEncoderFileSystemExporterConfigEditorFactoryC1EPNS_45AbstractModelStreamEncoderConfigEditorFactoryE@Base 4:14.12.0
 _ZN6Kasten49ModelEncoderFileSystemExporterConfigEditorFactoryC2EPNS_45AbstractModelStreamEncoderConfigEditorFactoryE@Base 4:14.12.0
 _ZN6Kasten49ModelEncoderFileSystemExporterConfigEditorFactoryD0Ev@Base 4:14.12.0
 _ZN6Kasten49ModelEncoderFileSystemExporterConfigEditorFactoryD1Ev@Base 4:14.12.0
 _ZN6Kasten49ModelEncoderFileSystemExporterConfigEditorFactoryD2Ev@Base 4:14.12.0
 _ZN6Kasten9DummyView11qt_metacallEN11QMetaObject4CallEiPPv@Base 4:14.12.0
 _ZN6Kasten9DummyView11qt_metacastEPKc@Base 4:14.12.0
 _ZN6Kasten9DummyView13onTitleChangeERK7QString@Base 4:14.12.0
 _ZN6Kasten9DummyView16staticMetaObjectE@Base 4:14.12.0
 _ZN6Kasten9DummyView8setFocusEv@Base 4:14.12.0
 _ZN6Kasten9DummyViewC1EPNS_16AbstractDocumentE@Base 4:14.12.0
 _ZN6Kasten9DummyViewC2EPNS_16AbstractDocumentE@Base 4:14.12.0
 _ZN6Kasten9DummyViewD0Ev@Base 4:14.12.0
 _ZN6Kasten9DummyViewD1Ev@Base 4:14.12.0
 _ZN6Kasten9DummyViewD2Ev@Base 4:14.12.0
 _ZN6Kasten9StatusBar11changeEventEP6QEvent@Base 4:14.12.0
 _ZN6Kasten9StatusBar11qt_metacallEN11QMetaObject4CallEiPPv@Base 4:14.12.0
 _ZN6Kasten9StatusBar11qt_metacastEPKc@Base 4:14.12.0
 _ZN6Kasten9StatusBar12updateLayoutEv@Base 4:14.12.0
 _ZN6Kasten9StatusBar16staticMetaObjectE@Base 4:14.12.0
 _ZN6Kasten9StatusBar9addWidgetEP7QWidget@Base 4:14.12.0
 _ZN6Kasten9StatusBarC1EP7QWidget@Base 4:14.12.0
 _ZN6Kasten9StatusBarC2EP7QWidget@Base 4:14.12.0
 _ZN6Kasten9StatusBarD0Ev@Base 4:14.12.0
 _ZN6Kasten9StatusBarD1Ev@Base 4:14.12.0
 _ZN6Kasten9StatusBarD2Ev@Base 4:14.12.0
 _ZNK6Kasten11ShellWindow10metaObjectEv@Base 4:14.12.0
 _ZNK6Kasten11ShellWindow11dockWidgetsEv@Base 4:14.12.0
 _ZNK6Kasten11ShellWindow11viewManagerEv@Base 4:14.12.0
 _ZNK6Kasten11ShellWindow8viewAreaEv@Base 4:14.12.0
 _ZNK6Kasten11TabbedViews10metaObjectEv@Base 4:14.12.0
 _ZNK6Kasten11TabbedViews6widgetEv@Base 4:14.12.0
 _ZNK6Kasten11TabbedViews7indexOfEPNS_12AbstractViewE@Base 4:14.12.0
 _ZNK6Kasten11TabbedViews8hasFocusEv@Base 4:14.12.0
 _ZNK6Kasten11TabbedViews8viewListEv@Base 4:14.12.0
 _ZNK6Kasten11TabbedViews9viewCountEv@Base 4:14.12.0
 _ZNK6Kasten11TabbedViews9viewFocusEv@Base 4:14.12.0
 _ZNK6Kasten11ViewManager10metaObjectEv@Base 4:14.12.0
 _ZNK6Kasten11ViewManager12viewByWidgetEP7QWidget@Base 4:14.12.0
 _ZNK6Kasten11ViewManager5viewsEv@Base 4:14.12.0
 _ZNK6Kasten12AbstractView10metaObjectEv@Base 4:14.12.0
 _ZNK6Kasten12ToggleButton10metaObjectEv@Base 4:14.12.0
 _ZNK6Kasten13AbstractModel13findBaseModelIPNS_16AbstractDocumentEEET_v@Base 4:14.12.0
 _ZNK6Kasten13DialogHandler12queryDiscardEPKNS_16AbstractDocumentERK7QString@Base 4:14.12.0
 _ZNK6Kasten13DialogHandler14queryOverwriteERK4QUrlRK7QString@Base 4:14.12.0
 _ZNK6Kasten13DialogHandler16querySaveDiscardEPKNS_16AbstractDocumentERK7QString@Base 4:14.12.0
 _ZNK6Kasten13DialogHandler20queryDiscardOnReloadEPKNS_16AbstractDocumentERK7QString@Base 4:14.12.0
 _ZNK6Kasten14MultiViewAreas10metaObjectEv@Base 4:14.12.0
 _ZNK6Kasten14MultiViewAreas13viewAreaFocusEv@Base 4:14.12.0
 _ZNK6Kasten14MultiViewAreas14viewAreasCountEv@Base 4:14.12.0
 _ZNK6Kasten14MultiViewAreas6widgetEv@Base 4:14.12.0
 _ZNK6Kasten14MultiViewAreas7indexOfEPNS_12AbstractViewE@Base 4:14.12.0
 _ZNK6Kasten14MultiViewAreas8hasFocusEv@Base 4:14.12.0
 _ZNK6Kasten14MultiViewAreas8viewListEv@Base 4:14.12.0
 _ZNK6Kasten14MultiViewAreas9viewCountEv@Base 4:14.12.0
 _ZNK6Kasten14MultiViewAreas9viewFocusEv@Base 4:14.12.0
 _ZNK6Kasten14SingleViewArea10metaObjectEv@Base 4:14.12.0
 _ZNK6Kasten14SingleViewArea6widgetEv@Base 4:14.12.0
 _ZNK6Kasten14SingleViewArea8hasFocusEv@Base 4:14.12.0
 _ZNK6Kasten16AbstractViewArea10metaObjectEv@Base 4:14.12.0
 _ZNK6Kasten16SingleViewWindow10metaObjectEv@Base 4:14.12.0
 _ZNK6Kasten16SingleViewWindow11dockWidgetsEv@Base 4:14.12.0
 _ZNK6Kasten16SingleViewWindow4viewEv@Base 4:14.12.0
 _ZNK6Kasten16SingleViewWindow8viewAreaEv@Base 4:14.12.0
 _ZNK6Kasten17AbstractLinePopup10metaObjectEv@Base 4:14.12.0
 _ZNK6Kasten18AbstractController10metaObjectEv@Base 4:14.12.0
 _ZNK6Kasten18AbstractToolWidget10metaObjectEv@Base 4:14.12.0
 _ZNK6Kasten20AbstractGroupedViews10metaObjectEv@Base 4:14.12.0
 _ZNK6Kasten21AbstractSelectionView10metaObjectEv@Base 4:14.12.0
 _ZNK6Kasten21ModelCodecViewManager10metaObjectEv@Base 4:14.12.0
 _ZNK6Kasten21ModelCodecViewManager18createConfigEditorEPNS_21AbstractModelExporterE@Base 4:14.12.0
 _ZNK6Kasten21ModelCodecViewManager18createConfigEditorEPNS_26AbstractModelDataGeneratorE@Base 4:14.12.0
 _ZNK6Kasten21ModelCodecViewManager18createConfigEditorEPNS_26AbstractModelStreamEncoderE@Base 4:14.12.0
 _ZNK6Kasten21MultiDocumentStrategy10metaObjectEv@Base 4:14.12.0
 _ZNK6Kasten21MultiDocumentStrategy11canCloseAllEv@Base 4:14.12.0
 _ZNK6Kasten21MultiDocumentStrategy16canCloseAllOtherEPNS_16AbstractDocumentE@Base 4:14.12.0
 _ZNK6Kasten21MultiDocumentStrategy20supportedRemoteTypesEv@Base 4:14.12.0
 _ZNK6Kasten21MultiDocumentStrategy8canCloseEPNS_16AbstractDocumentE@Base 4:14.12.0
 _ZNK6Kasten21MultiDocumentStrategy9documentsEv@Base 4:14.12.0
 _ZNK6Kasten22SingleDocumentStrategy10metaObjectEv@Base 4:14.12.0
 _ZNK6Kasten22SingleDocumentStrategy11canCloseAllEv@Base 4:14.12.0
 _ZNK6Kasten22SingleDocumentStrategy16canCloseAllOtherEPNS_16AbstractDocumentE@Base 4:14.12.0
 _ZNK6Kasten22SingleDocumentStrategy20supportedRemoteTypesEv@Base 4:14.12.0
 _ZNK6Kasten22SingleDocumentStrategy8canCloseEPNS_16AbstractDocumentE@Base 4:14.12.0
 _ZNK6Kasten22SingleDocumentStrategy9documentsEv@Base 4:14.12.0
 _ZNK6Kasten24AbstractDocumentStrategy10metaObjectEv@Base 4:14.12.0
 _ZNK6Kasten24AbstractXmlGuiController10metaObjectEv@Base 4:14.12.0
 _ZNK6Kasten33AbstractModelExporterConfigEditor10metaObjectEv@Base 4:14.12.0
 _ZNK6Kasten33AbstractModelExporterConfigEditor17createPreviewViewEv@Base 4:14.12.0
 _ZNK6Kasten33AbstractModelExporterConfigEditor7isValidEv@Base 4:14.12.0
 _ZNK6Kasten38AbstractModelDataGeneratorConfigEditor10metaObjectEv@Base 4:14.12.0
 _ZNK6Kasten38AbstractModelDataGeneratorConfigEditor7isValidEv@Base 4:14.12.0
 _ZNK6Kasten38AbstractModelStreamEncoderConfigEditor10metaObjectEv@Base 4:14.12.0
 _ZNK6Kasten38AbstractModelStreamEncoderConfigEditor17createPreviewViewEv@Base 4:14.12.0
 _ZNK6Kasten38AbstractModelStreamEncoderConfigEditor7isValidEv@Base 4:14.12.0
 _ZNK6Kasten42ModelEncoderFileSystemExporterConfigEditor10metaObjectEv@Base 4:14.12.0
 _ZNK6Kasten42ModelEncoderFileSystemExporterConfigEditor17createPreviewViewEv@Base 4:14.12.0
 _ZNK6Kasten42ModelEncoderFileSystemExporterConfigEditor7isValidEv@Base 4:14.12.0
 _ZNK6Kasten49ModelEncoderFileSystemExporterConfigEditorFactory21tryCreateConfigEditorEPNS_21AbstractModelExporterE@Base 4:14.12.0
 _ZNK6Kasten9DummyView10metaObjectEv@Base 4:14.12.0
 _ZNK6Kasten9DummyView5titleEv@Base 4:14.12.0
 _ZNK6Kasten9DummyView6widgetEv@Base 4:14.12.0
 _ZNK6Kasten9DummyView8hasFocusEv@Base 4:14.12.0
 _ZNK6Kasten9StatusBar10metaObjectEv@Base 4:14.12.0
 _ZTIN6Kasten11ShellWindowE@Base 4:15.04.0
 _ZTIN6Kasten11TabbedViewsE@Base 4:15.04.0
 _ZTIN6Kasten11ViewManagerE@Base 4:15.04.0
 _ZTIN6Kasten12AbstractViewE@Base 4:15.04.0
 _ZTIN6Kasten12ToggleButtonE@Base 4:15.04.0
 _ZTIN6Kasten13DialogHandlerE@Base 4:15.04.0
 _ZTIN6Kasten14MultiViewAreasE@Base 4:15.04.0
 _ZTIN6Kasten14SingleViewAreaE@Base 4:15.04.0
 _ZTIN6Kasten16AbstractToolViewE@Base 4:15.04.0
 _ZTIN6Kasten16AbstractViewAreaE@Base 4:15.04.0
 _ZTIN6Kasten16SingleViewWindowE@Base 4:15.04.0
 _ZTIN6Kasten17AbstractLinePopupE@Base 4:15.04.0
 _ZTIN6Kasten18AbstractControllerE@Base 4:15.04.0
 _ZTIN6Kasten18AbstractToolWidgetE@Base 4:15.04.0
 _ZTIN6Kasten19AbstractViewFactoryE@Base 4:15.08.0
 _ZTIN6Kasten20AbstractGroupedViewsE@Base 4:15.04.0
 _ZTIN6Kasten21AbstractSelectionViewE@Base 4:15.04.0
 _ZTIN6Kasten21ModelCodecViewManagerE@Base 4:15.04.0
 _ZTIN6Kasten21MultiDocumentStrategyE@Base 4:15.04.0
 _ZTIN6Kasten22AbstractToolInlineViewE@Base 4:15.04.0
 _ZTIN6Kasten22SingleDocumentStrategyE@Base 4:15.04.0
 _ZTIN6Kasten23AbstractOverwriteDialogE@Base 4:15.04.0
 _ZTIN6Kasten24AbstractDocumentStrategyE@Base 4:15.04.0
 _ZTIN6Kasten24AbstractXmlGuiControllerE@Base 4:15.04.0
 _ZTIN6Kasten25AbstractSaveDiscardDialogE@Base 4:15.04.0
 _ZTIN6Kasten33AbstractModelExporterConfigEditorE@Base 4:15.04.0
 _ZTIN6Kasten38AbstractModelDataGeneratorConfigEditorE@Base 4:15.04.0
 _ZTIN6Kasten38AbstractModelStreamEncoderConfigEditorE@Base 4:15.04.0
 _ZTIN6Kasten40AbstractModelExporterConfigEditorFactoryE@Base 4:15.04.0
 _ZTIN6Kasten42ModelEncoderFileSystemExporterConfigEditorE@Base 4:15.04.0
 _ZTIN6Kasten45AbstractModelDataGeneratorConfigEditorFactoryE@Base 4:15.08.0
 _ZTIN6Kasten45AbstractModelStreamEncoderConfigEditorFactoryE@Base 4:15.08.0
 _ZTIN6Kasten49ModelEncoderFileSystemExporterConfigEditorFactoryE@Base 4:15.04.0
 _ZTIN6Kasten9DummyViewE@Base 4:15.04.0
 _ZTIN6Kasten9StatusBarE@Base 4:15.04.0
 _ZTSN6Kasten11ShellWindowE@Base 4:15.04.0
 _ZTSN6Kasten11TabbedViewsE@Base 4:15.04.0
 _ZTSN6Kasten11ViewManagerE@Base 4:15.04.0
 _ZTSN6Kasten12AbstractViewE@Base 4:15.04.0
 _ZTSN6Kasten12ToggleButtonE@Base 4:15.04.0
 _ZTSN6Kasten13DialogHandlerE@Base 4:15.04.0
 _ZTSN6Kasten14MultiViewAreasE@Base 4:15.04.0
 _ZTSN6Kasten14SingleViewAreaE@Base 4:15.04.0
 _ZTSN6Kasten16AbstractToolViewE@Base 4:15.04.0
 _ZTSN6Kasten16AbstractViewAreaE@Base 4:15.04.0
 _ZTSN6Kasten16SingleViewWindowE@Base 4:15.04.0
 _ZTSN6Kasten17AbstractLinePopupE@Base 4:15.04.0
 _ZTSN6Kasten18AbstractControllerE@Base 4:15.04.0
 _ZTSN6Kasten18AbstractToolWidgetE@Base 4:15.04.0
 _ZTSN6Kasten19AbstractViewFactoryE@Base 4:15.08.0
 _ZTSN6Kasten20AbstractGroupedViewsE@Base 4:15.04.0
 _ZTSN6Kasten21AbstractSelectionViewE@Base 4:15.04.0
 _ZTSN6Kasten21ModelCodecViewManagerE@Base 4:15.04.0
 _ZTSN6Kasten21MultiDocumentStrategyE@Base 4:15.04.0
 _ZTSN6Kasten22AbstractToolInlineViewE@Base 4:15.04.0
 _ZTSN6Kasten22SingleDocumentStrategyE@Base 4:15.04.0
 _ZTSN6Kasten23AbstractOverwriteDialogE@Base 4:15.04.0
 _ZTSN6Kasten24AbstractDocumentStrategyE@Base 4:15.04.0
 _ZTSN6Kasten24AbstractXmlGuiControllerE@Base 4:15.04.0
 _ZTSN6Kasten25AbstractSaveDiscardDialogE@Base 4:15.04.0
 _ZTSN6Kasten33AbstractModelExporterConfigEditorE@Base 4:15.04.0
 _ZTSN6Kasten38AbstractModelDataGeneratorConfigEditorE@Base 4:15.04.0
 _ZTSN6Kasten38AbstractModelStreamEncoderConfigEditorE@Base 4:15.04.0
 _ZTSN6Kasten40AbstractModelExporterConfigEditorFactoryE@Base 4:15.04.0
 _ZTSN6Kasten42ModelEncoderFileSystemExporterConfigEditorE@Base 4:15.04.0
 _ZTSN6Kasten45AbstractModelDataGeneratorConfigEditorFactoryE@Base 4:15.08.0
 _ZTSN6Kasten45AbstractModelStreamEncoderConfigEditorFactoryE@Base 4:15.08.0
 _ZTSN6Kasten49ModelEncoderFileSystemExporterConfigEditorFactoryE@Base 4:15.04.0
 _ZTSN6Kasten9DummyViewE@Base 4:15.04.0
 _ZTSN6Kasten9StatusBarE@Base 4:15.04.0
 _ZTTN6Kasten11ShellWindowE@Base 4:14.12.0
 _ZTTN6Kasten16SingleViewWindowE@Base 4:14.12.0
 _ZTVN6Kasten11ShellWindowE@Base 4:14.12.0
 _ZTVN6Kasten11TabbedViewsE@Base 4:14.12.0
 _ZTVN6Kasten11ViewManagerE@Base 4:14.12.0
 _ZTVN6Kasten12AbstractViewE@Base 4:14.12.0
 _ZTVN6Kasten12ToggleButtonE@Base 4:14.12.0
 _ZTVN6Kasten13DialogHandlerE@Base 4:14.12.0
 _ZTVN6Kasten14MultiViewAreasE@Base 4:14.12.0
 _ZTVN6Kasten14SingleViewAreaE@Base 4:14.12.0
 _ZTVN6Kasten16AbstractToolViewE@Base 4:14.12.0
 _ZTVN6Kasten16AbstractViewAreaE@Base 4:14.12.0
 _ZTVN6Kasten16SingleViewWindowE@Base 4:14.12.0
 _ZTVN6Kasten17AbstractLinePopupE@Base 4:14.12.0
 _ZTVN6Kasten18AbstractControllerE@Base 4:14.12.0
 _ZTVN6Kasten18AbstractToolWidgetE@Base 4:14.12.0
 _ZTVN6Kasten19AbstractViewFactoryE@Base 4:15.08.0
 _ZTVN6Kasten20AbstractGroupedViewsE@Base 4:14.12.0
 _ZTVN6Kasten21AbstractSelectionViewE@Base 4:14.12.0
 _ZTVN6Kasten21ModelCodecViewManagerE@Base 4:14.12.0
 _ZTVN6Kasten21MultiDocumentStrategyE@Base 4:14.12.0
 _ZTVN6Kasten22AbstractToolInlineViewE@Base 4:14.12.0
 _ZTVN6Kasten22SingleDocumentStrategyE@Base 4:14.12.0
 _ZTVN6Kasten23AbstractOverwriteDialogE@Base 4:15.08.0
 _ZTVN6Kasten24AbstractDocumentStrategyE@Base 4:14.12.0
 _ZTVN6Kasten24AbstractXmlGuiControllerE@Base 4:14.12.0
 _ZTVN6Kasten25AbstractSaveDiscardDialogE@Base 4:15.08.0
 _ZTVN6Kasten33AbstractModelExporterConfigEditorE@Base 4:14.12.0
 _ZTVN6Kasten38AbstractModelDataGeneratorConfigEditorE@Base 4:14.12.0
 _ZTVN6Kasten38AbstractModelStreamEncoderConfigEditorE@Base 4:14.12.0
 _ZTVN6Kasten40AbstractModelExporterConfigEditorFactoryE@Base 4:15.08.0
 _ZTVN6Kasten42ModelEncoderFileSystemExporterConfigEditorE@Base 4:14.12.0
 _ZTVN6Kasten45AbstractModelDataGeneratorConfigEditorFactoryE@Base 4:15.08.0
 _ZTVN6Kasten45AbstractModelStreamEncoderConfigEditorFactoryE@Base 4:15.08.0
 _ZTVN6Kasten49ModelEncoderFileSystemExporterConfigEditorFactoryE@Base 4:14.12.0
 _ZTVN6Kasten9DummyViewE@Base 4:14.12.0
 _ZTVN6Kasten9StatusBarE@Base 4:14.12.0
 _ZThn16_N6Kasten11ShellWindowD0Ev@Base 4:14.12.0
 _ZThn16_N6Kasten11ShellWindowD1Ev@Base 4:14.12.0
 _ZThn16_N6Kasten12ToggleButtonD0Ev@Base 4:14.12.0
 _ZThn16_N6Kasten12ToggleButtonD1Ev@Base 4:14.12.0
 _ZThn16_N6Kasten16SingleViewWindowD0Ev@Base 4:14.12.0
 _ZThn16_N6Kasten16SingleViewWindowD1Ev@Base 4:14.12.0
 _ZThn16_N6Kasten17AbstractLinePopupD0Ev@Base 4:14.12.0
 _ZThn16_N6Kasten17AbstractLinePopupD1Ev@Base 4:14.12.0
 _ZThn16_N6Kasten18AbstractToolWidgetD0Ev@Base 4:14.12.0
 _ZThn16_N6Kasten18AbstractToolWidgetD1Ev@Base 4:14.12.0
 _ZThn16_N6Kasten33AbstractModelExporterConfigEditorD0Ev@Base 4:14.12.0
 _ZThn16_N6Kasten33AbstractModelExporterConfigEditorD1Ev@Base 4:14.12.0
 _ZThn16_N6Kasten38AbstractModelDataGeneratorConfigEditorD0Ev@Base 4:14.12.0
 _ZThn16_N6Kasten38AbstractModelDataGeneratorConfigEditorD1Ev@Base 4:14.12.0
 _ZThn16_N6Kasten38AbstractModelStreamEncoderConfigEditorD0Ev@Base 4:14.12.0
 _ZThn16_N6Kasten38AbstractModelStreamEncoderConfigEditorD1Ev@Base 4:14.12.0
 _ZThn16_N6Kasten42ModelEncoderFileSystemExporterConfigEditorD0Ev@Base 4:14.12.0
 _ZThn16_N6Kasten42ModelEncoderFileSystemExporterConfigEditorD1Ev@Base 4:14.12.0
 _ZThn16_N6Kasten9StatusBarD0Ev@Base 4:14.12.0
 _ZThn16_N6Kasten9StatusBarD1Ev@Base 4:14.12.0
 _ZThn24_N6Kasten11TabbedViews24setCurrentToolInlineViewEPNS_22AbstractToolInlineViewE@Base 4:14.12.0
 _ZThn24_N6Kasten11TabbedViewsD0Ev@Base 4:14.12.0
 _ZThn24_N6Kasten11TabbedViewsD1Ev@Base 4:14.12.0
 _ZThn24_N6Kasten14MultiViewAreas24setCurrentToolInlineViewEPNS_22AbstractToolInlineViewE@Base 4:14.12.0
 _ZThn24_N6Kasten14MultiViewAreasD0Ev@Base 4:14.12.0
 _ZThn24_N6Kasten14MultiViewAreasD1Ev@Base 4:14.12.0
 _ZThn24_N6Kasten14SingleViewArea24setCurrentToolInlineViewEPNS_22AbstractToolInlineViewE@Base 4:14.12.0
 _ZThn24_N6Kasten14SingleViewAreaD0Ev@Base 4:14.12.0
 _ZThn24_N6Kasten14SingleViewAreaD1Ev@Base 4:14.12.0
 _ZThn32_N6Kasten14MultiViewAreas13closeViewAreaEPNS_16AbstractViewAreaE@Base 4:14.12.0
 _ZThn32_N6Kasten14MultiViewAreas13splitViewAreaEPNS_16AbstractViewAreaEN2Qt11OrientationE@Base 4:14.12.0
 _ZThn32_N6Kasten14MultiViewAreas14viewAreasAddedERK5QListIPNS_16AbstractViewAreaEE@Base 4:14.12.0
 _ZThn32_N6Kasten14MultiViewAreas16setViewAreaFocusEPNS_16AbstractViewAreaE@Base 4:14.12.0
 _ZThn32_N6Kasten14MultiViewAreas16viewAreasRemovedERK5QListIPNS_16AbstractViewAreaEE@Base 4:14.12.0
 _ZThn32_N6Kasten14MultiViewAreas20viewAreaFocusChangedEPNS_16AbstractViewAreaE@Base 4:14.12.0
 _ZThn32_N6Kasten14MultiViewAreasD0Ev@Base 4:14.12.0
 _ZThn32_N6Kasten14MultiViewAreasD1Ev@Base 4:14.12.0
 _ZThn32_NK6Kasten14MultiViewAreas13viewAreaFocusEv@Base 4:14.12.0
 _ZThn32_NK6Kasten14MultiViewAreas14viewAreasCountEv@Base 4:14.12.0
 _ZThn56_N6Kasten11ShellWindowD0Ev@Base 4:14.12.0
 _ZThn56_N6Kasten11ShellWindowD1Ev@Base 4:14.12.0
 _ZThn56_N6Kasten16SingleViewWindowD0Ev@Base 4:14.12.0
 _ZThn56_N6Kasten16SingleViewWindowD1Ev@Base 4:14.12.0
 _ZThn72_N6Kasten11ShellWindowD0Ev@Base 4:14.12.0
 _ZThn72_N6Kasten11ShellWindowD1Ev@Base 4:14.12.0
 _ZThn72_N6Kasten16SingleViewWindowD0Ev@Base 4:14.12.0
 _ZThn72_N6Kasten16SingleViewWindowD1Ev@Base 4:14.12.0
 _ZThn72_NK6Kasten11ShellWindow11dockWidgetsEv@Base 4:14.12.0
 _ZThn72_NK6Kasten16SingleViewWindow11dockWidgetsEv@Base 4:14.12.0
 _ZThn8_N6Kasten13DialogHandlerD0Ev@Base 4:14.12.0
 _ZThn8_N6Kasten13DialogHandlerD1Ev@Base 4:14.12.0
 _ZThn8_NK6Kasten13DialogHandler12queryDiscardEPKNS_16AbstractDocumentERK7QString@Base 4:14.12.0
 _ZThn8_NK6Kasten13DialogHandler16querySaveDiscardEPKNS_16AbstractDocumentERK7QString@Base 4:14.12.0
 _ZThn8_NK6Kasten13DialogHandler20queryDiscardOnReloadEPKNS_16AbstractDocumentERK7QString@Base 4:14.12.0
 _ZTv0_n24_N6Kasten11ShellWindowD0Ev@Base 4:14.12.0
 _ZTv0_n24_N6Kasten11ShellWindowD1Ev@Base 4:14.12.0
 _ZTv0_n24_N6Kasten16SingleViewWindowD0Ev@Base 4:14.12.0
 _ZTv0_n24_N6Kasten16SingleViewWindowD1Ev@Base 4:14.12.0
