libkasten3okteta1controllers.so.1 libkasten3okteta1controllers1 #MINVER#
 _ZN6Kasten10FilterTool11qt_metacallEN11QMetaObject4CallEiPPv@Base 4:14.12.0
 _ZN6Kasten10FilterTool11qt_metacastEPKc@Base 4:14.12.0
 _ZN6Kasten10FilterTool12parameterSetEi@Base 4:14.12.0
 _ZN6Kasten10FilterTool14setTargetModelEPNS_13AbstractModelE@Base 4:14.12.0
 _ZN6Kasten10FilterTool16charCodecChangedERK7QString@Base 4:14.12.0
 _ZN6Kasten10FilterTool16staticMetaObjectE@Base 4:14.12.0
 _ZN6Kasten10FilterTool18onApplyableChangedEv@Base 4:14.12.0
 _ZN6Kasten10FilterTool19hasWriteableChangedEb@Base 4:14.12.0
 _ZN6Kasten10FilterToolC1Ev@Base 4:14.12.0
 _ZN6Kasten10FilterToolC2Ev@Base 4:14.12.0
 _ZN6Kasten10FilterToolD0Ev@Base 4:14.12.0
 _ZN6Kasten10FilterToolD1Ev@Base 4:14.12.0
 _ZN6Kasten10FilterToolD2Ev@Base 4:14.12.0
 _ZN6Kasten10StructTool10headerDataEii@Base 4:14.12.0
 _ZN6Kasten10StructTool10updateDataERKN6Okteta22ArrayChangeMetricsListE@Base 4:14.12.0
 _ZN6Kasten10StructTool11dataChangedEiPv@Base 4:14.12.0
 _ZN6Kasten10StructTool11dataClearedEv@Base 4:14.12.0
 _ZN6Kasten10StructTool11qt_metacallEN11QMetaObject4CallEiPPv@Base 4:14.12.0
 _ZN6Kasten10StructTool11qt_metacastEPKc@Base 4:14.12.0
 _ZN6Kasten10StructTool12addChildItemEP23TopLevelDataInformation@Base 4:14.12.0
 _ZN6Kasten10StructTool12setByteOrderEN8QSysInfo6EndianE@Base 4:14.12.0
 _ZN6Kasten10StructTool12setByteOrderEi@Base 4:14.12.0
 _ZN6Kasten10StructTool12startAddressEPK23TopLevelDataInformation@Base 4:14.12.0
 _ZN6Kasten10StructTool13lockStructureERK11QModelIndex@Base 4:14.12.0
 _ZN6Kasten10StructTool14setTargetModelEPNS_13AbstractModelE@Base 4:14.12.0
 _ZN6Kasten10StructTool15childrenRemovedEPK15DataInformationjj@Base 4:14.12.0
 _ZN6Kasten10StructTool15unlockStructureERK11QModelIndex@Base 4:14.12.0
 _ZN6Kasten10StructTool16byteOrderChangedEv@Base 4:14.12.0
 _ZN6Kasten10StructTool16childrenInsertedEPK15DataInformationjj@Base 4:14.12.0
 _ZN6Kasten10StructTool16onContentsChangeERKN6Okteta22ArrayChangeMetricsListE@Base 4:14.12.0
 _ZN6Kasten10StructTool16staticMetaObjectE@Base 4:14.12.0
 _ZN6Kasten10StructTool18cursorIndexChangedEv@Base 4:14.12.0
 _ZN6Kasten10StructTool18onByteOrderChangedEv@Base 4:14.12.0
 _ZN6Kasten10StructTool21byteArrayModelChangedEPN6Okteta22AbstractByteArrayModelE@Base 4:14.12.0
 _ZN6Kasten10StructTool21validateAllStructuresEv@Base 4:14.12.0
 _ZN6Kasten10StructTool22onChildItemDataChangedEv@Base 4:14.12.0
 _ZN6Kasten10StructTool22onCursorPositionChangeEi@Base 4:14.12.0
 _ZN6Kasten10StructTool24childrenAboutToBeRemovedEP15DataInformationjj@Base 4:14.12.0
 _ZN6Kasten10StructTool25childrenAboutToBeInsertedEP15DataInformationjj@Base 4:14.12.0
 _ZN6Kasten10StructTool27setSelectedStructuresInViewEv@Base 4:14.12.0
 _ZN6Kasten10StructTool4markERK11QModelIndex@Base 4:14.12.0
 _ZN6Kasten10StructTool6unmarkEv@Base 4:14.12.0
 _ZN6Kasten10StructTool7setDataERK8QVariantiP15DataInformationj@Base 4:14.12.0
 _ZN6Kasten10StructToolC1Ev@Base 4:14.12.0
 _ZN6Kasten10StructToolC2Ev@Base 4:14.12.0
 _ZN6Kasten10StructToolD0Ev@Base 4:14.12.0
 _ZN6Kasten10StructToolD1Ev@Base 4:14.12.0
 _ZN6Kasten10StructToolD2Ev@Base 4:14.12.0
 _ZN6Kasten12ChecksumTool11qt_metacallEN11QMetaObject4CallEiPPv@Base 4:14.12.0
 _ZN6Kasten12ChecksumTool11qt_metacastEPKc@Base 4:14.12.0
 _ZN6Kasten12ChecksumTool12parameterSetEv@Base 4:14.12.0
 _ZN6Kasten12ChecksumTool12setAlgorithmEi@Base 4:14.12.0
 _ZN6Kasten12ChecksumTool13checkUptoDateEv@Base 4:14.12.0
 _ZN6Kasten12ChecksumTool14setTargetModelEPNS_13AbstractModelE@Base 4:14.12.0
 _ZN6Kasten12ChecksumTool15checksumChangedERK7QString@Base 4:14.12.0
 _ZN6Kasten12ChecksumTool15onSourceChangedEv@Base 4:14.12.0
 _ZN6Kasten12ChecksumTool15resetSourceToolEv@Base 4:14.12.0
 _ZN6Kasten12ChecksumTool15uptodateChangedEb@Base 4:14.12.0
 _ZN6Kasten12ChecksumTool16staticMetaObjectE@Base 4:14.12.0
 _ZN6Kasten12ChecksumTool17calculateChecksumEv@Base 4:14.12.0
 _ZN6Kasten12ChecksumTool17onSourceDestroyedEv@Base 4:14.12.0
 _ZN6Kasten12ChecksumTool18isApplyableChangedEb@Base 4:14.12.0
 _ZN6Kasten12ChecksumTool18onSelectionChangedEv@Base 4:14.12.0
 _ZN6Kasten12ChecksumToolC1Ev@Base 4:14.12.0
 _ZN6Kasten12ChecksumToolC2Ev@Base 4:14.12.0
 _ZN6Kasten12ChecksumToolD0Ev@Base 4:14.12.0
 _ZN6Kasten12ChecksumToolD1Ev@Base 4:14.12.0
 _ZN6Kasten12ChecksumToolD2Ev@Base 4:14.12.0
 _ZN6Kasten12InfoToolViewC1EPNS_8InfoToolE@Base 4:14.12.0
 _ZN6Kasten12InfoToolViewC2EPNS_8InfoToolE@Base 4:14.12.0
 _ZN6Kasten12InfoToolViewD0Ev@Base 4:14.12.0
 _ZN6Kasten12InfoToolViewD1Ev@Base 4:14.12.0
 _ZN6Kasten12InfoToolViewD2Ev@Base 4:14.12.0
 _ZN6Kasten13BookmarksTool11qt_metacallEN11QMetaObject4CallEiPPv@Base 4:14.12.0
 _ZN6Kasten13BookmarksTool11qt_metacastEPKc@Base 4:14.12.0
 _ZN6Kasten13BookmarksTool12gotoBookmarkERKN6Okteta8BookmarkE@Base 4:14.12.0
 _ZN6Kasten13BookmarksTool14bookmarksAddedERK5QListIN6Okteta8BookmarkEE@Base 4:14.12.0
 _ZN6Kasten13BookmarksTool14createBookmarkEv@Base 4:14.12.0
 _ZN6Kasten13BookmarksTool14setTargetModelEPNS_13AbstractModelE@Base 4:14.12.0
 _ZN6Kasten13BookmarksTool15deleteBookmarksERK5QListIN6Okteta8BookmarkEE@Base 4:14.12.0
 _ZN6Kasten13BookmarksTool15setBookmarkNameEjRK7QString@Base 4:14.12.0
 _ZN6Kasten13BookmarksTool16bookmarksRemovedERK5QListIN6Okteta8BookmarkEE@Base 4:14.12.0
 _ZN6Kasten13BookmarksTool16staticMetaObjectE@Base 4:14.12.0
 _ZN6Kasten13BookmarksTool17bookmarksModifiedERK5QListIiE@Base 4:14.12.0
 _ZN6Kasten13BookmarksTool19hasBookmarksChangedEb@Base 4:14.12.0
 _ZN6Kasten13BookmarksTool19offsetCodingChangedEi@Base 4:14.12.0
 _ZN6Kasten13BookmarksTool19onBookmarksModifiedEv@Base 4:14.12.0
 _ZN6Kasten13BookmarksTool23onCursorPositionChangedEi@Base 4:14.12.0
 _ZN6Kasten13BookmarksTool24canCreateBookmarkChangedEb@Base 4:14.12.0
 _ZN6Kasten13BookmarksToolC1Ev@Base 4:14.12.0
 _ZN6Kasten13BookmarksToolC2Ev@Base 4:14.12.0
 _ZN6Kasten13BookmarksToolD0Ev@Base 4:14.12.0
 _ZN6Kasten13BookmarksToolD1Ev@Base 4:14.12.0
 _ZN6Kasten13BookmarksToolD2Ev@Base 4:14.12.0
 _ZN6Kasten13ByteTableTool11qt_metacallEN11QMetaObject4CallEiPPv@Base 4:14.12.0
 _ZN6Kasten13ByteTableTool11qt_metacastEPKc@Base 4:14.12.0
 _ZN6Kasten13ByteTableTool14setTargetModelEPNS_13AbstractModelE@Base 4:14.12.0
 _ZN6Kasten13ByteTableTool16staticMetaObjectE@Base 4:14.12.0
 _ZN6Kasten13ByteTableTool17onReadOnlyChangedEb@Base 4:14.12.0
 _ZN6Kasten13ByteTableTool19hasWriteableChangedEb@Base 4:14.12.0
 _ZN6Kasten13ByteTableTool6insertEhi@Base 4:14.12.0
 _ZN6Kasten13ByteTableToolC1Ev@Base 4:14.12.0
 _ZN6Kasten13ByteTableToolC2Ev@Base 4:14.12.0
 _ZN6Kasten13ByteTableToolD0Ev@Base 4:14.12.0
 _ZN6Kasten13ByteTableToolD1Ev@Base 4:14.12.0
 _ZN6Kasten13ByteTableToolD2Ev@Base 4:14.12.0
 _ZN6Kasten14FilterToolViewC1EPNS_10FilterToolE@Base 4:14.12.0
 _ZN6Kasten14FilterToolViewC2EPNS_10FilterToolE@Base 4:14.12.0
 _ZN6Kasten14FilterToolViewD0Ev@Base 4:14.12.0
 _ZN6Kasten14FilterToolViewD1Ev@Base 4:14.12.0
 _ZN6Kasten14FilterToolViewD2Ev@Base 4:14.12.0
 _ZN6Kasten14PODDecoderTool10updateDataEv@Base 4:14.12.0
 _ZN6Kasten14PODDecoderTool11dataChangedEv@Base 4:14.12.0
 _ZN6Kasten14PODDecoderTool11qt_metacallEN11QMetaObject4CallEiPPv@Base 4:14.12.0
 _ZN6Kasten14PODDecoderTool11qt_metacastEPKc@Base 4:14.12.0
 _ZN6Kasten14PODDecoderTool12setByteOrderEi@Base 4:14.12.0
 _ZN6Kasten14PODDecoderTool12setupDecoderEv@Base 4:14.12.0
 _ZN6Kasten14PODDecoderTool14setTargetModelEPNS_13AbstractModelE@Base 4:14.12.0
 _ZN6Kasten14PODDecoderTool15readOnlyChangedEb@Base 4:14.12.0
 _ZN6Kasten14PODDecoderTool16onContentsChangeEv@Base 4:14.12.0
 _ZN6Kasten14PODDecoderTool16setUnsignedAsHexEb@Base 4:14.12.0
 _ZN6Kasten14PODDecoderTool16staticMetaObjectE@Base 4:14.12.0
 _ZN6Kasten14PODDecoderTool17onCharCodecChangeERK7QString@Base 4:14.12.0
 _ZN6Kasten14PODDecoderTool17onReadOnlyChangedEv@Base 4:14.12.0
 _ZN6Kasten14PODDecoderTool18isApplyableChangedEb@Base 4:14.12.0
 _ZN6Kasten14PODDecoderTool22onCursorPositionChangeEi@Base 4:14.12.0
 _ZN6Kasten14PODDecoderTool22setDifferentSizeDialogEPNS_27AbstractDifferentSizeDialogE@Base 4:14.12.0
 _ZN6Kasten14PODDecoderTool7markPODEi@Base 4:14.12.0
 _ZN6Kasten14PODDecoderTool7setDataERK8QVarianti@Base 4:14.12.0
 _ZN6Kasten14PODDecoderTool9unmarkPODEv@Base 4:14.12.0
 _ZN6Kasten14PODDecoderToolC1Ev@Base 4:14.12.0
 _ZN6Kasten14PODDecoderToolC2Ev@Base 4:14.12.0
 _ZN6Kasten14PODDecoderToolD0Ev@Base 4:14.12.0
 _ZN6Kasten14PODDecoderToolD1Ev@Base 4:14.12.0
 _ZN6Kasten14PODDecoderToolD2Ev@Base 4:14.12.0
 _ZN6Kasten14StructToolViewC1EPNS_10StructToolE@Base 4:14.12.0
 _ZN6Kasten14StructToolViewC2EPNS_10StructToolE@Base 4:14.12.0
 _ZN6Kasten14StructToolViewD0Ev@Base 4:14.12.0
 _ZN6Kasten14StructToolViewD1Ev@Base 4:14.12.0
 _ZN6Kasten14StructToolViewD2Ev@Base 4:14.12.0
 _ZN6Kasten15InfoToolFactory6createEv@Base 4:14.12.0
 _ZN6Kasten15InfoToolFactoryC1Ev@Base 4:14.12.0
 _ZN6Kasten15InfoToolFactoryC2Ev@Base 4:14.12.0
 _ZN6Kasten15InfoToolFactoryD0Ev@Base 4:14.12.0
 _ZN6Kasten15InfoToolFactoryD1Ev@Base 4:14.12.0
 _ZN6Kasten15InfoToolFactoryD2Ev@Base 4:14.12.0
 _ZN6Kasten15PrintController11qt_metacallEN11QMetaObject4CallEiPPv@Base 4:14.12.0
 _ZN6Kasten15PrintController11qt_metacastEPKc@Base 4:14.12.0
 _ZN6Kasten15PrintController14setTargetModelEPNS_13AbstractModelE@Base 4:14.12.0
 _ZN6Kasten15PrintController16staticMetaObjectE@Base 4:14.12.0
 _ZN6Kasten15PrintController5printEv@Base 4:14.12.0
 _ZN6Kasten15PrintControllerC1EP13KXMLGUIClient@Base 4:14.12.0
 _ZN6Kasten15PrintControllerC2EP13KXMLGUIClient@Base 4:14.12.0
 _ZN6Kasten15PrintControllerD0Ev@Base 4:14.12.0
 _ZN6Kasten15PrintControllerD1Ev@Base 4:14.12.0
 _ZN6Kasten15PrintControllerD2Ev@Base 4:14.12.0
 _ZN6Kasten16ChecksumToolViewC1EPNS_12ChecksumToolE@Base 4:14.12.0
 _ZN6Kasten16ChecksumToolViewC2EPNS_12ChecksumToolE@Base 4:14.12.0
 _ZN6Kasten16ChecksumToolViewD0Ev@Base 4:14.12.0
 _ZN6Kasten16ChecksumToolViewD1Ev@Base 4:14.12.0
 _ZN6Kasten16ChecksumToolViewD2Ev@Base 4:14.12.0
 _ZN6Kasten16DocumentInfoTool11qt_metacallEN11QMetaObject4CallEiPPv@Base 4:14.12.0
 _ZN6Kasten16DocumentInfoTool11qt_metacastEPKc@Base 4:14.12.0
 _ZN6Kasten16DocumentInfoTool12onUrlChangedERK4QUrl@Base 4:14.12.0
 _ZN6Kasten16DocumentInfoTool14setTargetModelEPNS_13AbstractModelE@Base 4:14.12.0
 _ZN6Kasten16DocumentInfoTool14updateMimeTypeEv@Base 4:14.12.0
 _ZN6Kasten16DocumentInfoTool15locationChangedERK7QString@Base 4:14.12.0
 _ZN6Kasten16DocumentInfoTool16staticMetaObjectE@Base 4:14.12.0
 _ZN6Kasten16DocumentInfoTool17onContentsChangedEv@Base 4:14.12.0
 _ZN6Kasten16DocumentInfoTool19documentSizeChangedEi@Base 4:14.12.0
 _ZN6Kasten16DocumentInfoTool20documentTitleChangedERK7QString@Base 4:14.12.0
 _ZN6Kasten16DocumentInfoTool21onSynchronizerChangedEPNS_25AbstractModelSynchronizerE@Base 4:14.12.0
 _ZN6Kasten16DocumentInfoTool23documentMimeTypeChangedERK9QMimeType@Base 4:14.12.0
 _ZN6Kasten16DocumentInfoToolC1EPNS_19DocumentSyncManagerE@Base 4:14.12.0
 _ZN6Kasten16DocumentInfoToolC2EPNS_19DocumentSyncManagerE@Base 4:14.12.0
 _ZN6Kasten16DocumentInfoToolD0Ev@Base 4:14.12.0
 _ZN6Kasten16DocumentInfoToolD1Ev@Base 4:14.12.0
 _ZN6Kasten16DocumentInfoToolD2Ev@Base 4:14.12.0
 _ZN6Kasten16SearchController10showDialogENS_14KFindDirectionE@Base 4:14.12.0
 _ZN6Kasten16SearchController11qt_metacallEN11QMetaObject4CallEiPPv@Base 4:14.12.0
 _ZN6Kasten16SearchController11qt_metacastEPKc@Base 4:14.12.0
 _ZN6Kasten16SearchController12findPreviousEv@Base 4:14.12.0
 _ZN6Kasten16SearchController14onDataNotFoundEv@Base 4:14.12.0
 _ZN6Kasten16SearchController14setTargetModelEPNS_13AbstractModelE@Base 4:14.12.0
 _ZN6Kasten16SearchController16staticMetaObjectE@Base 4:14.12.0
 _ZN6Kasten16SearchController4findEv@Base 4:14.12.0
 _ZN6Kasten16SearchController8findNextEv@Base 4:14.12.0
 _ZN6Kasten16SearchControllerC1EP13KXMLGUIClientP7QWidget@Base 4:14.12.0
 _ZN6Kasten16SearchControllerC2EP13KXMLGUIClientP7QWidget@Base 4:14.12.0
 _ZN6Kasten16SearchControllerD0Ev@Base 4:14.12.0
 _ZN6Kasten16SearchControllerD1Ev@Base 4:14.12.0
 _ZN6Kasten16SearchControllerD2Ev@Base 4:14.12.0
 _ZN6Kasten17BookmarksToolViewC1EPNS_13BookmarksToolE@Base 4:14.12.0
 _ZN6Kasten17BookmarksToolViewC2EPNS_13BookmarksToolE@Base 4:14.12.0
 _ZN6Kasten17BookmarksToolViewD0Ev@Base 4:14.12.0
 _ZN6Kasten17BookmarksToolViewD1Ev@Base 4:14.12.0
 _ZN6Kasten17BookmarksToolViewD2Ev@Base 4:14.12.0
 _ZN6Kasten17ByteTableToolViewC1EPNS_13ByteTableToolE@Base 4:14.12.0
 _ZN6Kasten17ByteTableToolViewC2EPNS_13ByteTableToolE@Base 4:14.12.0
 _ZN6Kasten17ByteTableToolViewD0Ev@Base 4:14.12.0
 _ZN6Kasten17ByteTableToolViewD1Ev@Base 4:14.12.0
 _ZN6Kasten17ByteTableToolViewD2Ev@Base 4:14.12.0
 _ZN6Kasten17FilterToolFactory6createEv@Base 4:14.12.0
 _ZN6Kasten17FilterToolFactoryC1Ev@Base 4:14.12.0
 _ZN6Kasten17FilterToolFactoryC2Ev@Base 4:14.12.0
 _ZN6Kasten17FilterToolFactoryD0Ev@Base 4:14.12.0
 _ZN6Kasten17FilterToolFactoryD1Ev@Base 4:14.12.0
 _ZN6Kasten17FilterToolFactoryD2Ev@Base 4:14.12.0
 _ZN6Kasten17ReplaceController10onFinishedEbi@Base 4:14.12.0
 _ZN6Kasten17ReplaceController11qt_metacallEN11QMetaObject4CallEiPPv@Base 4:14.12.0
 _ZN6Kasten17ReplaceController11qt_metacastEPKc@Base 4:14.12.0
 _ZN6Kasten17ReplaceController14setTargetModelEPNS_13AbstractModelE@Base 4:14.12.0
 _ZN6Kasten17ReplaceController16staticMetaObjectE@Base 4:14.12.0
 _ZN6Kasten17ReplaceController7replaceEv@Base 4:14.12.0
 _ZN6Kasten17ReplaceControllerC1EP13KXMLGUIClientP7QWidget@Base 4:14.12.0
 _ZN6Kasten17ReplaceControllerC2EP13KXMLGUIClientP7QWidget@Base 4:14.12.0
 _ZN6Kasten17ReplaceControllerD0Ev@Base 4:14.12.0
 _ZN6Kasten17ReplaceControllerD1Ev@Base 4:14.12.0
 _ZN6Kasten17ReplaceControllerD2Ev@Base 4:14.12.0
 _ZN6Kasten18PODDecoderToolViewC1EPNS_14PODDecoderToolE@Base 4:14.12.0
 _ZN6Kasten18PODDecoderToolViewC2EPNS_14PODDecoderToolE@Base 4:14.12.0
 _ZN6Kasten18PODDecoderToolViewD0Ev@Base 4:14.12.0
 _ZN6Kasten18PODDecoderToolViewD1Ev@Base 4:14.12.0
 _ZN6Kasten18PODDecoderToolViewD2Ev@Base 4:14.12.0
 _ZN6Kasten18StringsExtractTool10markStringEi@Base 4:14.12.0
 _ZN6Kasten18StringsExtractTool11qt_metacallEN11QMetaObject4CallEiPPv@Base 4:14.12.0
 _ZN6Kasten18StringsExtractTool11qt_metacastEPKc@Base 4:14.12.0
 _ZN6Kasten18StringsExtractTool12setMinLengthEi@Base 4:14.12.0
 _ZN6Kasten18StringsExtractTool12unmarkStringEv@Base 4:14.12.0
 _ZN6Kasten18StringsExtractTool13checkUptoDateEv@Base 4:14.12.0
 _ZN6Kasten18StringsExtractTool14extractStringsEv@Base 4:14.12.0
 _ZN6Kasten18StringsExtractTool14setTargetModelEPNS_13AbstractModelE@Base 4:14.12.0
 _ZN6Kasten18StringsExtractTool15onSourceChangedEv@Base 4:14.12.0
 _ZN6Kasten18StringsExtractTool15uptodateChangedEb@Base 4:14.12.0
 _ZN6Kasten18StringsExtractTool16staticMetaObjectE@Base 4:14.12.0
 _ZN6Kasten18StringsExtractTool17onSourceDestroyedEv@Base 4:14.12.0
 _ZN6Kasten18StringsExtractTool18isApplyableChangedEb@Base 4:14.12.0
 _ZN6Kasten18StringsExtractTool18onSelectionChangedEv@Base 4:14.12.0
 _ZN6Kasten18StringsExtractTool19offsetCodingChangedEi@Base 4:14.12.0
 _ZN6Kasten18StringsExtractTool21onSourceViewDestroyedEv@Base 4:14.12.0
 _ZN6Kasten18StringsExtractTool25canHighlightStringChangedEb@Base 4:14.12.0
 _ZN6Kasten18StringsExtractToolC1Ev@Base 4:14.12.0
 _ZN6Kasten18StringsExtractToolC2Ev@Base 4:14.12.0
 _ZN6Kasten18StringsExtractToolD0Ev@Base 4:14.12.0
 _ZN6Kasten18StringsExtractToolD1Ev@Base 4:14.12.0
 _ZN6Kasten18StringsExtractToolD2Ev@Base 4:14.12.0
 _ZN6Kasten18ViewModeController11qt_metacallEN11QMetaObject4CallEiPPv@Base 4:14.12.0
 _ZN6Kasten18ViewModeController11qt_metacastEPKc@Base 4:14.12.0
 _ZN6Kasten18ViewModeController11setViewModeEi@Base 4:14.12.0
 _ZN6Kasten18ViewModeController14setTargetModelEPNS_13AbstractModelE@Base 4:14.12.0
 _ZN6Kasten18ViewModeController16staticMetaObjectE@Base 4:14.12.0
 _ZN6Kasten18ViewModeControllerC1EP13KXMLGUIClient@Base 4:14.12.0
 _ZN6Kasten18ViewModeControllerC2EP13KXMLGUIClient@Base 4:14.12.0
 _ZN6Kasten19BookmarksController11qt_metacallEN11QMetaObject4CallEiPPv@Base 4:14.12.0
 _ZN6Kasten19BookmarksController11qt_metacastEPKc@Base 4:14.12.0
 _ZN6Kasten19BookmarksController14createBookmarkEv@Base 4:14.12.0
 _ZN6Kasten19BookmarksController14deleteBookmarkEv@Base 4:14.12.0
 _ZN6Kasten19BookmarksController14setTargetModelEPNS_13AbstractModelE@Base 4:14.12.0
 _ZN6Kasten19BookmarksController15updateBookmarksEv@Base 4:14.12.0
 _ZN6Kasten19BookmarksController16gotoNextBookmarkEv@Base 4:14.12.0
 _ZN6Kasten19BookmarksController16onBookmarksAddedERK5QListIN6Okteta8BookmarkEE@Base 4:14.12.0
 _ZN6Kasten19BookmarksController16staticMetaObjectE@Base 4:14.12.0
 _ZN6Kasten19BookmarksController18deleteAllBookmarksEv@Base 4:14.12.0
 _ZN6Kasten19BookmarksController18onBookmarksRemovedERK5QListIN6Okteta8BookmarkEE@Base 4:14.12.0
 _ZN6Kasten19BookmarksController19onBookmarkTriggeredEP7QAction@Base 4:14.12.0
 _ZN6Kasten19BookmarksController20gotoPreviousBookmarkEv@Base 4:14.12.0
 _ZN6Kasten19BookmarksController23onCursorPositionChangedEi@Base 4:14.12.0
 _ZN6Kasten19BookmarksControllerC1EP13KXMLGUIClient@Base 4:14.12.0
 _ZN6Kasten19BookmarksControllerC2EP13KXMLGUIClient@Base 4:14.12.0
 _ZN6Kasten19BookmarksControllerD0Ev@Base 4:14.12.0
 _ZN6Kasten19BookmarksControllerD1Ev@Base 4:14.12.0
 _ZN6Kasten19BookmarksControllerD2Ev@Base 4:14.12.0
 _ZN6Kasten19ChecksumToolFactory6createEv@Base 4:14.12.0
 _ZN6Kasten19ChecksumToolFactoryC1Ev@Base 4:14.12.0
 _ZN6Kasten19ChecksumToolFactoryC2Ev@Base 4:14.12.0
 _ZN6Kasten19ChecksumToolFactoryD0Ev@Base 4:14.12.0
 _ZN6Kasten19ChecksumToolFactoryD1Ev@Base 4:14.12.0
 _ZN6Kasten19ChecksumToolFactoryD2Ev@Base 4:14.12.0
 _ZN6Kasten19InfoToolViewFactory6createEPNS_12AbstractToolE@Base 4:14.12.0
 _ZN6Kasten19InfoToolViewFactoryC1Ev@Base 4:14.12.0
 _ZN6Kasten19InfoToolViewFactoryC2Ev@Base 4:14.12.0
 _ZN6Kasten19InfoToolViewFactoryD0Ev@Base 4:14.12.0
 _ZN6Kasten19InfoToolViewFactoryD1Ev@Base 4:14.12.0
 _ZN6Kasten19InfoToolViewFactoryD2Ev@Base 4:14.12.0
 _ZN6Kasten20BookmarksToolFactory6createEv@Base 4:14.12.0
 _ZN6Kasten20BookmarksToolFactoryC1Ev@Base 4:14.12.0
 _ZN6Kasten20BookmarksToolFactoryC2Ev@Base 4:14.12.0
 _ZN6Kasten20BookmarksToolFactoryD0Ev@Base 4:14.12.0
 _ZN6Kasten20BookmarksToolFactoryD1Ev@Base 4:14.12.0
 _ZN6Kasten20BookmarksToolFactoryD2Ev@Base 4:14.12.0
 _ZN6Kasten20ByteTableToolFactory6createEv@Base 4:14.12.0
 _ZN6Kasten20ByteTableToolFactoryC1Ev@Base 4:14.12.0
 _ZN6Kasten20ByteTableToolFactoryC2Ev@Base 4:14.12.0
 _ZN6Kasten20ByteTableToolFactoryD0Ev@Base 4:14.12.0
 _ZN6Kasten20ByteTableToolFactoryD1Ev@Base 4:14.12.0
 _ZN6Kasten20ByteTableToolFactoryD2Ev@Base 4:14.12.0
 _ZN6Kasten20DocumentInfoToolViewC1EPNS_16DocumentInfoToolE@Base 4:14.12.0
 _ZN6Kasten20DocumentInfoToolViewC2EPNS_16DocumentInfoToolE@Base 4:14.12.0
 _ZN6Kasten20DocumentInfoToolViewD0Ev@Base 4:14.12.0
 _ZN6Kasten20DocumentInfoToolViewD1Ev@Base 4:14.12.0
 _ZN6Kasten20DocumentInfoToolViewD2Ev@Base 4:14.12.0
 _ZN6Kasten20GotoOffsetController10gotoOffsetEv@Base 4:14.12.0
 _ZN6Kasten20GotoOffsetController11qt_metacallEN11QMetaObject4CallEiPPv@Base 4:14.12.0
 _ZN6Kasten20GotoOffsetController11qt_metacastEPKc@Base 4:14.12.0
 _ZN6Kasten20GotoOffsetController14setTargetModelEPNS_13AbstractModelE@Base 4:14.12.0
 _ZN6Kasten20GotoOffsetController16staticMetaObjectE@Base 4:14.12.0
 _ZN6Kasten20GotoOffsetControllerC1EPNS_2If18ToolInlineViewableEP13KXMLGUIClient@Base 4:14.12.0
 _ZN6Kasten20GotoOffsetControllerC2EPNS_2If18ToolInlineViewableEP13KXMLGUIClient@Base 4:14.12.0
 _ZN6Kasten20GotoOffsetControllerD0Ev@Base 4:14.12.0
 _ZN6Kasten20GotoOffsetControllerD1Ev@Base 4:14.12.0
 _ZN6Kasten20GotoOffsetControllerD2Ev@Base 4:14.12.0
 _ZN6Kasten20ViewConfigController11qt_metacallEN11QMetaObject4CallEiPPv@Base 4:14.12.0
 _ZN6Kasten20ViewConfigController11qt_metacastEPKc@Base 4:14.12.0
 _ZN6Kasten20ViewConfigController13setCharCodingEi@Base 4:14.12.0
 _ZN6Kasten20ViewConfigController14setLayoutStyleEi@Base 4:14.12.0
 _ZN6Kasten20ViewConfigController14setTargetModelEPNS_13AbstractModelE@Base 4:14.12.0
 _ZN6Kasten20ViewConfigController14setValueCodingEi@Base 4:14.12.0
 _ZN6Kasten20ViewConfigController15setBytesPerLineEv@Base 4:14.12.0
 _ZN6Kasten20ViewConfigController15setOffsetCodingEi@Base 4:14.12.0
 _ZN6Kasten20ViewConfigController16setBytesPerGroupEv@Base 4:14.12.0
 _ZN6Kasten20ViewConfigController16staticMetaObjectE@Base 4:14.12.0
 _ZN6Kasten20ViewConfigController18onCharCodecChangedERK7QString@Base 4:14.12.0
 _ZN6Kasten20ViewConfigController18toggleOffsetColumnEb@Base 4:14.12.0
 _ZN6Kasten20ViewConfigController19setShowsNonprintingEb@Base 4:14.12.0
 _ZN6Kasten20ViewConfigController20onLayoutStyleChangedEi@Base 4:14.12.0
 _ZN6Kasten20ViewConfigController20onValueCodingChangedEi@Base 4:14.12.0
 _ZN6Kasten20ViewConfigController21onOffsetCodingChangedEi@Base 4:14.12.0
 _ZN6Kasten20ViewConfigController22toggleValueCharColumnsEi@Base 4:14.12.0
 _ZN6Kasten20ViewConfigController25onShowsNonprintingChangedEb@Base 4:14.12.0
 _ZN6Kasten20ViewConfigController28onOffsetColumnVisibleChangedEb@Base 4:14.12.0
 _ZN6Kasten20ViewConfigController32onVisibleByteArrayCodingsChangedEi@Base 4:14.12.0
 _ZN6Kasten20ViewConfigControllerC1EP13KXMLGUIClient@Base 4:14.12.0
 _ZN6Kasten20ViewConfigControllerC2EP13KXMLGUIClient@Base 4:14.12.0
 _ZN6Kasten20ViewStatusController11qt_metacallEN11QMetaObject4CallEiPPv@Base 4:14.12.0
 _ZN6Kasten20ViewStatusController11qt_metacastEPKc@Base 4:14.12.0
 _ZN6Kasten20ViewStatusController13setCharCodingEi@Base 4:14.12.0
 _ZN6Kasten20ViewStatusController14setTargetModelEPNS_13AbstractModelE@Base 4:14.12.0
 _ZN6Kasten20ViewStatusController14setValueCodingEi@Base 4:14.12.0
 _ZN6Kasten20ViewStatusController16setOverwriteModeEb@Base 4:14.12.0
 _ZN6Kasten20ViewStatusController16staticMetaObjectE@Base 4:14.12.0
 _ZN6Kasten20ViewStatusController18onCharCodecChangedERK7QString@Base 4:14.12.0
 _ZN6Kasten20ViewStatusController20onValueCodingChangedEi@Base 4:14.12.0
 _ZN6Kasten20ViewStatusController21onOffsetCodingChangedEi@Base 4:14.12.0
 _ZN6Kasten20ViewStatusController21onSelectedDataChangedEPKNS_22AbstractModelSelectionE@Base 4:14.12.0
 _ZN6Kasten20ViewStatusController23onCursorPositionChangedEi@Base 4:14.12.0
 _ZN6Kasten20ViewStatusController9fixWidthsEi@Base 4:14.12.0
 _ZN6Kasten20ViewStatusControllerC1EPNS_9StatusBarE@Base 4:14.12.0
 _ZN6Kasten20ViewStatusControllerC2EPNS_9StatusBarE@Base 4:14.12.0
 _ZN6Kasten21CharsetConversionTool11qt_metacallEN11QMetaObject4CallEiPPv@Base 4:14.12.0
 _ZN6Kasten21CharsetConversionTool11qt_metacastEPKc@Base 4:14.12.0
 _ZN6Kasten21CharsetConversionTool12convertCharsEv@Base 4:14.12.0
 _ZN6Kasten21CharsetConversionTool13onViewChangedEv@Base 4:14.12.0
 _ZN6Kasten21CharsetConversionTool14conversionDoneEbiRK4QMapIhiE@Base 4:14.12.0
 _ZN6Kasten21CharsetConversionTool14setTargetModelEPNS_13AbstractModelE@Base 4:14.12.0
 _ZN6Kasten21CharsetConversionTool16staticMetaObjectE@Base 4:14.12.0
 _ZN6Kasten21CharsetConversionTool17setSubstituteByteEi@Base 4:14.12.0
 _ZN6Kasten21CharsetConversionTool18isApplyableChangedEb@Base 4:14.12.0
 _ZN6Kasten21CharsetConversionTool21setOtherCharCodecNameERK7QString@Base 4:14.12.0
 _ZN6Kasten21CharsetConversionTool22setConversionDirectionEi@Base 4:14.12.0
 _ZN6Kasten21CharsetConversionTool27setSubstitutingMissingCharsEb@Base 4:14.12.0
 _ZN6Kasten21CharsetConversionToolC1Ev@Base 4:14.12.0
 _ZN6Kasten21CharsetConversionToolC2Ev@Base 4:14.12.0
 _ZN6Kasten21CharsetConversionToolD0Ev@Base 4:14.12.0
 _ZN6Kasten21CharsetConversionToolD1Ev@Base 4:14.12.0
 _ZN6Kasten21CharsetConversionToolD2Ev@Base 4:14.12.0
 _ZN6Kasten21FilterToolViewFactory6createEPNS_12AbstractToolE@Base 4:14.12.0
 _ZN6Kasten21FilterToolViewFactoryC1Ev@Base 4:14.12.0
 _ZN6Kasten21FilterToolViewFactoryC2Ev@Base 4:14.12.0
 _ZN6Kasten21FilterToolViewFactoryD0Ev@Base 4:14.12.0
 _ZN6Kasten21FilterToolViewFactoryD1Ev@Base 4:14.12.0
 _ZN6Kasten21FilterToolViewFactoryD2Ev@Base 4:14.12.0
 _ZN6Kasten21PodDecoderToolFactory6createEv@Base 4:14.12.0
 _ZN6Kasten21PodDecoderToolFactoryC1Ev@Base 4:14.12.0
 _ZN6Kasten21PodDecoderToolFactoryC2Ev@Base 4:14.12.0
 _ZN6Kasten21PodDecoderToolFactoryD0Ev@Base 4:14.12.0
 _ZN6Kasten21PodDecoderToolFactoryD1Ev@Base 4:14.12.0
 _ZN6Kasten21PodDecoderToolFactoryD2Ev@Base 4:14.12.0
 _ZN6Kasten21SelectRangeController11qt_metacallEN11QMetaObject4CallEiPPv@Base 4:14.12.0
 _ZN6Kasten21SelectRangeController11qt_metacastEPKc@Base 4:14.12.0
 _ZN6Kasten21SelectRangeController14setTargetModelEPNS_13AbstractModelE@Base 4:14.12.0
 _ZN6Kasten21SelectRangeController16staticMetaObjectE@Base 4:14.12.0
 _ZN6Kasten21SelectRangeController6selectEv@Base 4:14.12.0
 _ZN6Kasten21SelectRangeControllerC1EPNS_2If18ToolInlineViewableEP13KXMLGUIClient@Base 4:14.12.0
 _ZN6Kasten21SelectRangeControllerC2EPNS_2If18ToolInlineViewableEP13KXMLGUIClient@Base 4:14.12.0
 _ZN6Kasten21SelectRangeControllerD0Ev@Base 4:14.12.0
 _ZN6Kasten21SelectRangeControllerD1Ev@Base 4:14.12.0
 _ZN6Kasten21SelectRangeControllerD2Ev@Base 4:14.12.0
 _ZN6Kasten21StructuresToolFactory6createEv@Base 4:14.12.0
 _ZN6Kasten21StructuresToolFactoryC1Ev@Base 4:14.12.0
 _ZN6Kasten21StructuresToolFactoryC2Ev@Base 4:14.12.0
 _ZN6Kasten21StructuresToolFactoryD0Ev@Base 4:14.12.0
 _ZN6Kasten21StructuresToolFactoryD1Ev@Base 4:14.12.0
 _ZN6Kasten21StructuresToolFactoryD2Ev@Base 4:14.12.0
 _ZN6Kasten21ViewProfileController11qt_metacallEN11QMetaObject4CallEiPPv@Base 4:14.12.0
 _ZN6Kasten21ViewProfileController11qt_metacastEPKc@Base 4:14.12.0
 _ZN6Kasten21ViewProfileController14setTargetModelEPNS_13AbstractModelE@Base 4:14.12.0
 _ZN6Kasten21ViewProfileController16staticMetaObjectE@Base 4:14.12.0
 _ZN6Kasten21ViewProfileController20onViewProfileChangedERK7QString@Base 4:14.12.0
 _ZN6Kasten21ViewProfileController21onViewProfilesChangedEv@Base 4:14.12.0
 _ZN6Kasten21ViewProfileController22onViewProfileTriggeredEP7QAction@Base 4:14.12.0
 _ZN6Kasten21ViewProfileController23onLocalSyncStateChangedENS_14LocalSyncStateE@Base 4:14.12.0
 _ZN6Kasten21ViewProfileController26onCreateNewActionTriggeredEv@Base 4:14.12.0
 _ZN6Kasten21ViewProfileController28onSaveChangesActionTriggeredEv@Base 4:14.12.0
 _ZN6Kasten21ViewProfileController29onResetChangesActionTriggeredEv@Base 4:14.12.0
 _ZN6Kasten21ViewProfileControllerC1EPNS_27ByteArrayViewProfileManagerEP7QWidgetP13KXMLGUIClient@Base 4:14.12.0
 _ZN6Kasten21ViewProfileControllerC2EPNS_27ByteArrayViewProfileManagerEP7QWidgetP13KXMLGUIClient@Base 4:14.12.0
 _ZN6Kasten22StringsExtractToolViewC1EPNS_18StringsExtractToolE@Base 4:14.12.0
 _ZN6Kasten22StringsExtractToolViewC2EPNS_18StringsExtractToolE@Base 4:14.12.0
 _ZN6Kasten22StringsExtractToolViewD0Ev@Base 4:14.12.0
 _ZN6Kasten22StringsExtractToolViewD1Ev@Base 4:14.12.0
 _ZN6Kasten22StringsExtractToolViewD2Ev@Base 4:14.12.0
 _ZN6Kasten23ChecksumToolViewFactory6createEPNS_12AbstractToolE@Base 4:14.12.0
 _ZN6Kasten23ChecksumToolViewFactoryC1Ev@Base 4:14.12.0
 _ZN6Kasten23ChecksumToolViewFactoryC2Ev@Base 4:14.12.0
 _ZN6Kasten23ChecksumToolViewFactoryD0Ev@Base 4:14.12.0
 _ZN6Kasten23ChecksumToolViewFactoryD1Ev@Base 4:14.12.0
 _ZN6Kasten23ChecksumToolViewFactoryD2Ev@Base 4:14.12.0
 _ZN6Kasten23OverwriteModeController11qt_metacallEN11QMetaObject4CallEiPPv@Base 4:14.12.0
 _ZN6Kasten23OverwriteModeController11qt_metacastEPKc@Base 4:14.12.0
 _ZN6Kasten23OverwriteModeController12setOverWriteEb@Base 4:14.12.0
 _ZN6Kasten23OverwriteModeController14setTargetModelEPNS_13AbstractModelE@Base 4:14.12.0
 _ZN6Kasten23OverwriteModeController16staticMetaObjectE@Base 4:14.12.0
 _ZN6Kasten23OverwriteModeControllerC1EP13KXMLGUIClient@Base 4:14.12.0
 _ZN6Kasten23OverwriteModeControllerC2EP13KXMLGUIClient@Base 4:14.12.0
 _ZN6Kasten24BookmarksToolViewFactory6createEPNS_12AbstractToolE@Base 4:14.12.0
 _ZN6Kasten24BookmarksToolViewFactoryC1Ev@Base 4:14.12.0
 _ZN6Kasten24BookmarksToolViewFactoryC2Ev@Base 4:14.12.0
 _ZN6Kasten24BookmarksToolViewFactoryD0Ev@Base 4:14.12.0
 _ZN6Kasten24BookmarksToolViewFactoryD1Ev@Base 4:14.12.0
 _ZN6Kasten24BookmarksToolViewFactoryD2Ev@Base 4:14.12.0
 _ZN6Kasten24ByteTableToolViewFactory6createEPNS_12AbstractToolE@Base 4:14.12.0
 _ZN6Kasten24ByteTableToolViewFactoryC1Ev@Base 4:14.12.0
 _ZN6Kasten24ByteTableToolViewFactoryC2Ev@Base 4:14.12.0
 _ZN6Kasten24ByteTableToolViewFactoryD0Ev@Base 4:14.12.0
 _ZN6Kasten24ByteTableToolViewFactoryD1Ev@Base 4:14.12.0
 _ZN6Kasten24ByteTableToolViewFactoryD2Ev@Base 4:14.12.0
 _ZN6Kasten25CharsetConversionToolViewC1EPNS_21CharsetConversionToolE@Base 4:14.12.0
 _ZN6Kasten25CharsetConversionToolViewC2EPNS_21CharsetConversionToolE@Base 4:14.12.0
 _ZN6Kasten25CharsetConversionToolViewD0Ev@Base 4:14.12.0
 _ZN6Kasten25CharsetConversionToolViewD1Ev@Base 4:14.12.0
 _ZN6Kasten25CharsetConversionToolViewD2Ev@Base 4:14.12.0
 _ZN6Kasten25PodDecoderToolViewFactory6createEPNS_12AbstractToolE@Base 4:14.12.0
 _ZN6Kasten25PodDecoderToolViewFactoryC1Ev@Base 4:14.12.0
 _ZN6Kasten25PodDecoderToolViewFactoryC2Ev@Base 4:14.12.0
 _ZN6Kasten25PodDecoderToolViewFactoryD0Ev@Base 4:14.12.0
 _ZN6Kasten25PodDecoderToolViewFactoryD1Ev@Base 4:14.12.0
 _ZN6Kasten25PodDecoderToolViewFactoryD2Ev@Base 4:14.12.0
 _ZN6Kasten25StringsExtractToolFactory6createEv@Base 4:14.12.0
 _ZN6Kasten25StringsExtractToolFactoryC1Ev@Base 4:14.12.0
 _ZN6Kasten25StringsExtractToolFactoryC2Ev@Base 4:14.12.0
 _ZN6Kasten25StringsExtractToolFactoryD0Ev@Base 4:14.12.0
 _ZN6Kasten25StringsExtractToolFactoryD1Ev@Base 4:14.12.0
 _ZN6Kasten25StringsExtractToolFactoryD2Ev@Base 4:14.12.0
 _ZN6Kasten25StructuresToolViewFactory6createEPNS_12AbstractToolE@Base 4:14.12.0
 _ZN6Kasten25StructuresToolViewFactoryC1Ev@Base 4:14.12.0
 _ZN6Kasten25StructuresToolViewFactoryC2Ev@Base 4:14.12.0
 _ZN6Kasten25StructuresToolViewFactoryD0Ev@Base 4:14.12.0
 _ZN6Kasten25StructuresToolViewFactoryD1Ev@Base 4:14.12.0
 _ZN6Kasten25StructuresToolViewFactoryD2Ev@Base 4:14.12.0
 _ZN6Kasten28CharsetConversionToolFactory6createEv@Base 4:14.12.0
 _ZN6Kasten28CharsetConversionToolFactoryC1Ev@Base 4:14.12.0
 _ZN6Kasten28CharsetConversionToolFactoryC2Ev@Base 4:14.12.0
 _ZN6Kasten28CharsetConversionToolFactoryD0Ev@Base 4:14.12.0
 _ZN6Kasten28CharsetConversionToolFactoryD1Ev@Base 4:14.12.0
 _ZN6Kasten28CharsetConversionToolFactoryD2Ev@Base 4:14.12.0
 _ZN6Kasten28ViewProfilesManageController11qt_metacallEN11QMetaObject4CallEiPPv@Base 4:14.12.0
 _ZN6Kasten28ViewProfilesManageController11qt_metacastEPKc@Base 4:14.12.0
 _ZN6Kasten28ViewProfilesManageController14manageProfilesEv@Base 4:14.12.0
 _ZN6Kasten28ViewProfilesManageController14setTargetModelEPNS_13AbstractModelE@Base 4:14.12.0
 _ZN6Kasten28ViewProfilesManageController16staticMetaObjectE@Base 4:14.12.0
 _ZN6Kasten28ViewProfilesManageControllerC1EP13KXMLGUIClientPNS_27ByteArrayViewProfileManagerEP7QWidget@Base 4:14.12.0
 _ZN6Kasten28ViewProfilesManageControllerC2EP13KXMLGUIClientPNS_27ByteArrayViewProfileManagerEP7QWidget@Base 4:14.12.0
 _ZN6Kasten29StringsExtractToolViewFactory6createEPNS_12AbstractToolE@Base 4:14.12.0
 _ZN6Kasten29StringsExtractToolViewFactoryC1Ev@Base 4:14.12.0
 _ZN6Kasten29StringsExtractToolViewFactoryC2Ev@Base 4:14.12.0
 _ZN6Kasten29StringsExtractToolViewFactoryD0Ev@Base 4:14.12.0
 _ZN6Kasten29StringsExtractToolViewFactoryD1Ev@Base 4:14.12.0
 _ZN6Kasten29StringsExtractToolViewFactoryD2Ev@Base 4:14.12.0
 _ZN6Kasten32CharsetConversionToolViewFactory6createEPNS_12AbstractToolE@Base 4:14.12.0
 _ZN6Kasten32CharsetConversionToolViewFactoryC1Ev@Base 4:14.12.0
 _ZN6Kasten32CharsetConversionToolViewFactoryC2Ev@Base 4:14.12.0
 _ZN6Kasten32CharsetConversionToolViewFactoryD0Ev@Base 4:14.12.0
 _ZN6Kasten32CharsetConversionToolViewFactoryD1Ev@Base 4:14.12.0
 _ZN6Kasten32CharsetConversionToolViewFactoryD2Ev@Base 4:14.12.0
 _ZN6Kasten8InfoTool11qt_metacallEN11QMetaObject4CallEiPPv@Base 4:14.12.0
 _ZN6Kasten8InfoTool11qt_metacastEPKc@Base 4:14.12.0
 _ZN6Kasten8InfoTool14setTargetModelEPNS_13AbstractModelE@Base 4:14.12.0
 _ZN6Kasten8InfoTool14statisticDirtyEb@Base 4:14.12.0
 _ZN6Kasten8InfoTool15onSourceChangedEv@Base 4:14.12.0
 _ZN6Kasten8InfoTool15updateStatisticEv@Base 4:14.12.0
 _ZN6Kasten8InfoTool16staticMetaObjectE@Base 4:14.12.0
 _ZN6Kasten8InfoTool17onSourceDestroyedEv@Base 4:14.12.0
 _ZN6Kasten8InfoTool18isApplyableChangedEb@Base 4:14.12.0
 _ZN6Kasten8InfoTool18onSelectionChangedEv@Base 4:14.12.0
 _ZN6Kasten8InfoToolC1Ev@Base 4:14.12.0
 _ZN6Kasten8InfoToolC2Ev@Base 4:14.12.0
 _ZN6Kasten8InfoToolD0Ev@Base 4:14.12.0
 _ZN6Kasten8InfoToolD1Ev@Base 4:14.12.0
 _ZN6Kasten8InfoToolD2Ev@Base 4:14.12.0
 _ZNK6Kasten10FilterTool10filterListEv@Base 4:14.12.0
 _ZNK6Kasten10FilterTool10metaObjectEv@Base 4:14.12.0
 _ZNK6Kasten10FilterTool12hasWriteableEv@Base 4:14.12.0
 _ZNK6Kasten10FilterTool13charCodecNameEv@Base 4:14.12.0
 _ZNK6Kasten10FilterTool5titleEv@Base 4:14.12.0
 _ZNK6Kasten10FilterTool6filterEi@Base 4:14.12.0
 _ZNK6Kasten10StructTool10childCountEv@Base 4:14.12.0
 _ZNK6Kasten10StructTool10metaObjectEv@Base 4:14.12.0
 _ZNK6Kasten10StructTool12isFileLoadedEv@Base 4:14.12.0
 _ZNK6Kasten10StructTool14byteArrayModelEv@Base 4:14.12.0
 _ZNK6Kasten10StructTool17isStructureLockedERK11QModelIndex@Base 4:14.12.0
 _ZNK6Kasten10StructTool20canStructureBeLockedERK11QModelIndex@Base 4:14.12.0
 _ZNK6Kasten10StructTool5titleEv@Base 4:14.12.0
 _ZNK6Kasten10StructTool7allDataEv@Base 4:14.12.0
 _ZNK6Kasten10StructTool7childAtEi@Base 4:14.12.0
 _ZNK6Kasten10StructTool7managerEv@Base 4:14.12.0
 _ZNK6Kasten10StructTool9byteOrderEv@Base 4:14.12.0
 _ZNK6Kasten12ChecksumTool10metaObjectEv@Base 4:14.12.0
 _ZNK6Kasten12ChecksumTool11isApplyableEv@Base 4:14.12.0
 _ZNK6Kasten12ChecksumTool13algorithmListEv@Base 4:14.12.0
 _ZNK6Kasten12ChecksumTool5titleEv@Base 4:14.12.0
 _ZNK6Kasten12InfoToolView4toolEv@Base 4:14.12.0
 _ZNK6Kasten12InfoToolView5titleEv@Base 4:14.12.0
 _ZNK6Kasten12InfoToolView6widgetEv@Base 4:14.12.0
 _ZNK6Kasten13BookmarksTool10bookmarkAtEj@Base 4:14.12.0
 _ZNK6Kasten13BookmarksTool10metaObjectEv@Base 4:14.12.0
 _ZNK6Kasten13BookmarksTool12offsetCodingEv@Base 4:14.12.0
 _ZNK6Kasten13BookmarksTool14bookmarksCountEv@Base 4:14.12.0
 _ZNK6Kasten13BookmarksTool17canCreateBookmarkEv@Base 4:14.12.0
 _ZNK6Kasten13BookmarksTool5titleEv@Base 4:14.12.0
 _ZNK6Kasten13BookmarksTool7indexOfERKN6Okteta8BookmarkE@Base 4:14.12.0
 _ZNK6Kasten13ByteTableTool10metaObjectEv@Base 4:14.12.0
 _ZNK6Kasten13ByteTableTool12hasWriteableEv@Base 4:14.12.0
 _ZNK6Kasten13ByteTableTool14byteTableModelEv@Base 4:14.12.0
 _ZNK6Kasten13ByteTableTool5titleEv@Base 4:14.12.0
 _ZNK6Kasten14FilterToolView4toolEv@Base 4:14.12.0
 _ZNK6Kasten14FilterToolView5titleEv@Base 4:14.12.0
 _ZNK6Kasten14FilterToolView6widgetEv@Base 4:14.12.0
 _ZNK6Kasten14PODDecoderTool10isReadOnlyEv@Base 4:14.12.0
 _ZNK6Kasten14PODDecoderTool10metaObjectEv@Base 4:14.12.0
 _ZNK6Kasten14PODDecoderTool11isApplyableEv@Base 4:14.12.0
 _ZNK6Kasten14PODDecoderTool5titleEv@Base 4:14.12.0
 _ZNK6Kasten14PODDecoderTool5valueEi@Base 4:14.12.0
 _ZNK6Kasten14PODDecoderTool8podCountEv@Base 4:14.12.0
 _ZNK6Kasten14PODDecoderTool9nameOfPODEi@Base 4:14.12.0
 _ZNK6Kasten14StructToolView4toolEv@Base 4:14.12.0
 _ZNK6Kasten14StructToolView5titleEv@Base 4:14.12.0
 _ZNK6Kasten14StructToolView6widgetEv@Base 4:14.12.0
 _ZNK6Kasten15PrintController10metaObjectEv@Base 4:14.12.0
 _ZNK6Kasten16ChecksumToolView4toolEv@Base 4:14.12.0
 _ZNK6Kasten16ChecksumToolView5titleEv@Base 4:14.12.0
 _ZNK6Kasten16ChecksumToolView6widgetEv@Base 4:14.12.0
 _ZNK6Kasten16DocumentInfoTool10metaObjectEv@Base 4:14.12.0
 _ZNK6Kasten16DocumentInfoTool12documentSizeEv@Base 4:14.12.0
 _ZNK6Kasten16DocumentInfoTool13documentTitleEv@Base 4:14.12.0
 _ZNK6Kasten16DocumentInfoTool5titleEv@Base 4:14.12.0
 _ZNK6Kasten16DocumentInfoTool8locationEv@Base 4:14.12.0
 _ZNK6Kasten16SearchController10metaObjectEv@Base 4:14.12.0
 _ZNK6Kasten16SearchController13queryContinueENS_14KFindDirectionE@Base 4:14.12.0
 _ZNK6Kasten17BookmarksToolView4toolEv@Base 4:14.12.0
 _ZNK6Kasten17BookmarksToolView5titleEv@Base 4:14.12.0
 _ZNK6Kasten17BookmarksToolView6widgetEv@Base 4:14.12.0
 _ZNK6Kasten17ByteTableToolView4toolEv@Base 4:14.12.0
 _ZNK6Kasten17ByteTableToolView5titleEv@Base 4:14.12.0
 _ZNK6Kasten17ByteTableToolView6widgetEv@Base 4:14.12.0
 _ZNK6Kasten17ReplaceController10metaObjectEv@Base 4:14.12.0
 _ZNK6Kasten17ReplaceController13queryContinueENS_14KFindDirectionEi@Base 4:14.12.0
 _ZNK6Kasten17ReplaceController19queryReplaceCurrentEv@Base 4:14.12.0
 _ZNK6Kasten18PODDecoderToolView4toolEv@Base 4:14.12.0
 _ZNK6Kasten18PODDecoderToolView5titleEv@Base 4:14.12.0
 _ZNK6Kasten18PODDecoderToolView6widgetEv@Base 4:14.12.0
 _ZNK6Kasten18StringsExtractTool10metaObjectEv@Base 4:14.12.0
 _ZNK6Kasten18StringsExtractTool11isApplyableEv@Base 4:14.12.0
 _ZNK6Kasten18StringsExtractTool12offsetCodingEv@Base 4:14.12.0
 _ZNK6Kasten18StringsExtractTool18canHighlightStringEv@Base 4:14.12.0
 _ZNK6Kasten18StringsExtractTool5titleEv@Base 4:14.12.0
 _ZNK6Kasten18ViewModeController10metaObjectEv@Base 4:14.12.0
 _ZNK6Kasten19BookmarksController10metaObjectEv@Base 4:14.12.0
 _ZNK6Kasten19InfoToolViewFactory15defaultPositionEv@Base 4:14.12.0
 _ZNK6Kasten19InfoToolViewFactory2idEv@Base 4:14.12.0
 _ZNK6Kasten19InfoToolViewFactory5titleEv@Base 4:14.12.0
 _ZNK6Kasten19InfoToolViewFactory8iconNameEv@Base 4:14.12.0
 _ZNK6Kasten20DocumentInfoToolView4toolEv@Base 4:14.12.0
 _ZNK6Kasten20DocumentInfoToolView5titleEv@Base 4:14.12.0
 _ZNK6Kasten20DocumentInfoToolView6widgetEv@Base 4:14.12.0
 _ZNK6Kasten20GotoOffsetController10metaObjectEv@Base 4:14.12.0
 _ZNK6Kasten20ViewConfigController10metaObjectEv@Base 4:14.12.0
 _ZNK6Kasten20ViewStatusController10metaObjectEv@Base 4:14.12.0
 _ZNK6Kasten21CharsetConversionTool10metaObjectEv@Base 4:14.12.0
 _ZNK6Kasten21CharsetConversionTool11isApplyableEv@Base 4:14.12.0
 _ZNK6Kasten21CharsetConversionTool14substituteByteEv@Base 4:14.12.0
 _ZNK6Kasten21CharsetConversionTool18otherCharCodecNameEv@Base 4:14.12.0
 _ZNK6Kasten21CharsetConversionTool19conversionDirectionEv@Base 4:14.12.0
 _ZNK6Kasten21CharsetConversionTool26isSubstitutingMissingCharsEv@Base 4:14.12.0
 _ZNK6Kasten21CharsetConversionTool5titleEv@Base 4:14.12.0
 _ZNK6Kasten21FilterToolViewFactory15defaultPositionEv@Base 4:14.12.0
 _ZNK6Kasten21FilterToolViewFactory2idEv@Base 4:14.12.0
 _ZNK6Kasten21FilterToolViewFactory5titleEv@Base 4:14.12.0
 _ZNK6Kasten21FilterToolViewFactory8iconNameEv@Base 4:14.12.0
 _ZNK6Kasten21SelectRangeController10metaObjectEv@Base 4:14.12.0
 _ZNK6Kasten21ViewProfileController10metaObjectEv@Base 4:14.12.0
 _ZNK6Kasten22StringsExtractToolView4toolEv@Base 4:14.12.0
 _ZNK6Kasten22StringsExtractToolView5titleEv@Base 4:14.12.0
 _ZNK6Kasten22StringsExtractToolView6widgetEv@Base 4:14.12.0
 _ZNK6Kasten23ChecksumToolViewFactory15defaultPositionEv@Base 4:14.12.0
 _ZNK6Kasten23ChecksumToolViewFactory2idEv@Base 4:14.12.0
 _ZNK6Kasten23ChecksumToolViewFactory5titleEv@Base 4:14.12.0
 _ZNK6Kasten23ChecksumToolViewFactory8iconNameEv@Base 4:14.12.0
 _ZNK6Kasten23OverwriteModeController10metaObjectEv@Base 4:14.12.0
 _ZNK6Kasten24BookmarksToolViewFactory15defaultPositionEv@Base 4:14.12.0
 _ZNK6Kasten24BookmarksToolViewFactory2idEv@Base 4:14.12.0
 _ZNK6Kasten24BookmarksToolViewFactory5titleEv@Base 4:14.12.0
 _ZNK6Kasten24BookmarksToolViewFactory8iconNameEv@Base 4:14.12.0
 _ZNK6Kasten24ByteTableToolViewFactory15defaultPositionEv@Base 4:14.12.0
 _ZNK6Kasten24ByteTableToolViewFactory2idEv@Base 4:14.12.0
 _ZNK6Kasten24ByteTableToolViewFactory5titleEv@Base 4:14.12.0
 _ZNK6Kasten24ByteTableToolViewFactory8iconNameEv@Base 4:14.12.0
 _ZNK6Kasten25CharsetConversionToolView4toolEv@Base 4:14.12.0
 _ZNK6Kasten25CharsetConversionToolView5titleEv@Base 4:14.12.0
 _ZNK6Kasten25CharsetConversionToolView6widgetEv@Base 4:14.12.0
 _ZNK6Kasten25PodDecoderToolViewFactory15defaultPositionEv@Base 4:14.12.0
 _ZNK6Kasten25PodDecoderToolViewFactory2idEv@Base 4:14.12.0
 _ZNK6Kasten25PodDecoderToolViewFactory5titleEv@Base 4:14.12.0
 _ZNK6Kasten25PodDecoderToolViewFactory8iconNameEv@Base 4:14.12.0
 _ZNK6Kasten25StructuresToolViewFactory15defaultPositionEv@Base 4:14.12.0
 _ZNK6Kasten25StructuresToolViewFactory2idEv@Base 4:14.12.0
 _ZNK6Kasten25StructuresToolViewFactory5titleEv@Base 4:14.12.0
 _ZNK6Kasten25StructuresToolViewFactory8iconNameEv@Base 4:14.12.0
 _ZNK6Kasten28ViewProfilesManageController10metaObjectEv@Base 4:14.12.0
 _ZNK6Kasten29StringsExtractToolViewFactory15defaultPositionEv@Base 4:14.12.0
 _ZNK6Kasten29StringsExtractToolViewFactory2idEv@Base 4:14.12.0
 _ZNK6Kasten29StringsExtractToolViewFactory5titleEv@Base 4:14.12.0
 _ZNK6Kasten29StringsExtractToolViewFactory8iconNameEv@Base 4:14.12.0
 _ZNK6Kasten32CharsetConversionToolViewFactory15defaultPositionEv@Base 4:14.12.0
 _ZNK6Kasten32CharsetConversionToolViewFactory2idEv@Base 4:14.12.0
 _ZNK6Kasten32CharsetConversionToolViewFactory5titleEv@Base 4:14.12.0
 _ZNK6Kasten32CharsetConversionToolViewFactory8iconNameEv@Base 4:14.12.0
 _ZNK6Kasten8InfoTool10metaObjectEv@Base 4:14.12.0
 _ZNK6Kasten8InfoTool11isApplyableEv@Base 4:14.12.0
 _ZNK6Kasten8InfoTool19isStatisticUptodateEv@Base 4:14.12.0
 _ZNK6Kasten8InfoTool19statisticTableModelEv@Base 4:14.12.0
 _ZNK6Kasten8InfoTool4sizeEv@Base 4:14.12.0
 _ZNK6Kasten8InfoTool5titleEv@Base 4:14.12.0
 _ZTI11QSharedData@Base 4:15.08.0
 _ZTIN6Kasten10FilterToolE@Base 4:15.04.0
 _ZTIN6Kasten10StructToolE@Base 4:15.04.0
 _ZTIN6Kasten12ChecksumToolE@Base 4:15.04.0
 _ZTIN6Kasten12InfoToolViewE@Base 4:15.04.0
 _ZTIN6Kasten13BookmarksToolE@Base 4:15.04.0
 _ZTIN6Kasten13ByteTableToolE@Base 4:15.04.0
 _ZTIN6Kasten14FilterToolViewE@Base 4:15.04.0
 _ZTIN6Kasten14PODDecoderToolE@Base 4:15.04.0
 _ZTIN6Kasten14StructToolViewE@Base 4:15.04.0
 _ZTIN6Kasten15InfoToolFactoryE@Base 4:15.04.0
 _ZTIN6Kasten15PrintControllerE@Base 4:15.04.0
 _ZTIN6Kasten16ChecksumToolViewE@Base 4:15.04.0
 _ZTIN6Kasten16DocumentInfoToolE@Base 4:15.04.0
 _ZTIN6Kasten16SearchControllerE@Base 4:15.04.0
 _ZTIN6Kasten17BookmarksToolViewE@Base 4:15.04.0
 _ZTIN6Kasten17ByteTableToolViewE@Base 4:15.04.0
 _ZTIN6Kasten17FilterToolFactoryE@Base 4:15.04.0
 _ZTIN6Kasten17ReplaceControllerE@Base 4:15.04.0
 _ZTIN6Kasten18PODDecoderToolViewE@Base 4:15.04.0
 _ZTIN6Kasten18StringsExtractToolE@Base 4:15.04.0
 _ZTIN6Kasten18ViewModeControllerE@Base 4:15.04.0
 _ZTIN6Kasten19BookmarksControllerE@Base 4:15.04.0
 _ZTIN6Kasten19ChecksumToolFactoryE@Base 4:15.04.0
 _ZTIN6Kasten19InfoToolViewFactoryE@Base 4:15.04.0
 _ZTIN6Kasten20BookmarksToolFactoryE@Base 4:15.04.0
 _ZTIN6Kasten20ByteTableToolFactoryE@Base 4:15.04.0
 _ZTIN6Kasten20DocumentInfoToolViewE@Base 4:15.04.0
 _ZTIN6Kasten20GotoOffsetControllerE@Base 4:15.04.0
 _ZTIN6Kasten20ViewConfigControllerE@Base 4:15.04.0
 _ZTIN6Kasten20ViewStatusControllerE@Base 4:15.04.0
 _ZTIN6Kasten21CharsetConversionToolE@Base 4:15.04.0
 _ZTIN6Kasten21FilterToolViewFactoryE@Base 4:15.04.0
 _ZTIN6Kasten21PodDecoderToolFactoryE@Base 4:15.04.0
 _ZTIN6Kasten21SelectRangeControllerE@Base 4:15.04.0
 _ZTIN6Kasten21StructuresToolFactoryE@Base 4:15.04.0
 _ZTIN6Kasten21ViewProfileControllerE@Base 4:15.04.0
 _ZTIN6Kasten22StringsExtractToolViewE@Base 4:15.04.0
 _ZTIN6Kasten23ChecksumToolViewFactoryE@Base 4:15.04.0
 _ZTIN6Kasten23OverwriteModeControllerE@Base 4:15.04.0
 _ZTIN6Kasten24BookmarksToolViewFactoryE@Base 4:15.04.0
 _ZTIN6Kasten24ByteTableToolViewFactoryE@Base 4:15.04.0
 _ZTIN6Kasten25CharsetConversionToolViewE@Base 4:15.04.0
 _ZTIN6Kasten25PodDecoderToolViewFactoryE@Base 4:15.04.0
 _ZTIN6Kasten25StringsExtractToolFactoryE@Base 4:15.04.0
 _ZTIN6Kasten25StructuresToolViewFactoryE@Base 4:15.04.0
 _ZTIN6Kasten28CharsetConversionToolFactoryE@Base 4:15.04.0
 _ZTIN6Kasten28ViewProfilesManageControllerE@Base 4:15.04.0
 _ZTIN6Kasten29StringsExtractToolViewFactoryE@Base 4:15.04.0
 _ZTIN6Kasten32CharsetConversionToolViewFactoryE@Base 4:15.04.0
 _ZTIN6Kasten8InfoToolE@Base 4:15.04.0
 _ZTIN6Okteta9CharCodecE@Base 4:16.12.0
 _ZTS11QSharedData@Base 4:15.08.0
 _ZTSN6Kasten10FilterToolE@Base 4:15.04.0
 _ZTSN6Kasten10StructToolE@Base 4:15.04.0
 _ZTSN6Kasten12ChecksumToolE@Base 4:15.04.0
 _ZTSN6Kasten12InfoToolViewE@Base 4:15.04.0
 _ZTSN6Kasten13BookmarksToolE@Base 4:15.04.0
 _ZTSN6Kasten13ByteTableToolE@Base 4:15.04.0
 _ZTSN6Kasten14FilterToolViewE@Base 4:15.04.0
 _ZTSN6Kasten14PODDecoderToolE@Base 4:15.04.0
 _ZTSN6Kasten14StructToolViewE@Base 4:15.04.0
 _ZTSN6Kasten15InfoToolFactoryE@Base 4:15.04.0
 _ZTSN6Kasten15PrintControllerE@Base 4:15.04.0
 _ZTSN6Kasten16ChecksumToolViewE@Base 4:15.04.0
 _ZTSN6Kasten16DocumentInfoToolE@Base 4:15.04.0
 _ZTSN6Kasten16SearchControllerE@Base 4:15.04.0
 _ZTSN6Kasten17BookmarksToolViewE@Base 4:15.04.0
 _ZTSN6Kasten17ByteTableToolViewE@Base 4:15.04.0
 _ZTSN6Kasten17FilterToolFactoryE@Base 4:15.04.0
 _ZTSN6Kasten17ReplaceControllerE@Base 4:15.04.0
 _ZTSN6Kasten18PODDecoderToolViewE@Base 4:15.04.0
 _ZTSN6Kasten18StringsExtractToolE@Base 4:15.04.0
 _ZTSN6Kasten18ViewModeControllerE@Base 4:15.04.0
 _ZTSN6Kasten19BookmarksControllerE@Base 4:15.04.0
 _ZTSN6Kasten19ChecksumToolFactoryE@Base 4:15.04.0
 _ZTSN6Kasten19InfoToolViewFactoryE@Base 4:15.04.0
 _ZTSN6Kasten20BookmarksToolFactoryE@Base 4:15.04.0
 _ZTSN6Kasten20ByteTableToolFactoryE@Base 4:15.04.0
 _ZTSN6Kasten20DocumentInfoToolViewE@Base 4:15.04.0
 _ZTSN6Kasten20GotoOffsetControllerE@Base 4:15.04.0
 _ZTSN6Kasten20ViewConfigControllerE@Base 4:15.04.0
 _ZTSN6Kasten20ViewStatusControllerE@Base 4:15.04.0
 _ZTSN6Kasten21CharsetConversionToolE@Base 4:15.04.0
 _ZTSN6Kasten21FilterToolViewFactoryE@Base 4:15.04.0
 _ZTSN6Kasten21PodDecoderToolFactoryE@Base 4:15.04.0
 _ZTSN6Kasten21SelectRangeControllerE@Base 4:15.04.0
 _ZTSN6Kasten21StructuresToolFactoryE@Base 4:15.04.0
 _ZTSN6Kasten21ViewProfileControllerE@Base 4:15.04.0
 _ZTSN6Kasten22StringsExtractToolViewE@Base 4:15.04.0
 _ZTSN6Kasten23ChecksumToolViewFactoryE@Base 4:15.04.0
 _ZTSN6Kasten23OverwriteModeControllerE@Base 4:15.04.0
 _ZTSN6Kasten24BookmarksToolViewFactoryE@Base 4:15.04.0
 _ZTSN6Kasten24ByteTableToolViewFactoryE@Base 4:15.04.0
 _ZTSN6Kasten25CharsetConversionToolViewE@Base 4:15.04.0
 _ZTSN6Kasten25PodDecoderToolViewFactoryE@Base 4:15.04.0
 _ZTSN6Kasten25StringsExtractToolFactoryE@Base 4:15.04.0
 _ZTSN6Kasten25StructuresToolViewFactoryE@Base 4:15.04.0
 _ZTSN6Kasten28CharsetConversionToolFactoryE@Base 4:15.04.0
 _ZTSN6Kasten28ViewProfilesManageControllerE@Base 4:15.04.0
 _ZTSN6Kasten29StringsExtractToolViewFactoryE@Base 4:15.04.0
 _ZTSN6Kasten32CharsetConversionToolViewFactoryE@Base 4:15.04.0
 _ZTSN6Kasten8InfoToolE@Base 4:15.04.0
 _ZTSN6Okteta9CharCodecE@Base 4:16.12.0
 _ZTVN6Kasten10FilterToolE@Base 4:14.12.0
 _ZTVN6Kasten10StructToolE@Base 4:14.12.0
 _ZTVN6Kasten12ChecksumToolE@Base 4:14.12.0
 _ZTVN6Kasten12InfoToolViewE@Base 4:14.12.0
 _ZTVN6Kasten13BookmarksToolE@Base 4:14.12.0
 _ZTVN6Kasten13ByteTableToolE@Base 4:14.12.0
 _ZTVN6Kasten14FilterToolViewE@Base 4:14.12.0
 _ZTVN6Kasten14PODDecoderToolE@Base 4:14.12.0
 _ZTVN6Kasten14StructToolViewE@Base 4:14.12.0
 _ZTVN6Kasten15InfoToolFactoryE@Base 4:14.12.0
 _ZTVN6Kasten15PrintControllerE@Base 4:14.12.0
 _ZTVN6Kasten16ChecksumToolViewE@Base 4:14.12.0
 _ZTVN6Kasten16DocumentInfoToolE@Base 4:14.12.0
 _ZTVN6Kasten16SearchControllerE@Base 4:14.12.0
 _ZTVN6Kasten17BookmarksToolViewE@Base 4:14.12.0
 _ZTVN6Kasten17ByteTableToolViewE@Base 4:14.12.0
 _ZTVN6Kasten17FilterToolFactoryE@Base 4:14.12.0
 _ZTVN6Kasten17ReplaceControllerE@Base 4:14.12.0
 _ZTVN6Kasten18PODDecoderToolViewE@Base 4:14.12.0
 _ZTVN6Kasten18StringsExtractToolE@Base 4:14.12.0
 _ZTVN6Kasten18ViewModeControllerE@Base 4:14.12.0
 _ZTVN6Kasten19BookmarksControllerE@Base 4:14.12.0
 _ZTVN6Kasten19ChecksumToolFactoryE@Base 4:14.12.0
 _ZTVN6Kasten19InfoToolViewFactoryE@Base 4:14.12.0
 _ZTVN6Kasten20BookmarksToolFactoryE@Base 4:14.12.0
 _ZTVN6Kasten20ByteTableToolFactoryE@Base 4:14.12.0
 _ZTVN6Kasten20DocumentInfoToolViewE@Base 4:14.12.0
 _ZTVN6Kasten20GotoOffsetControllerE@Base 4:14.12.0
 _ZTVN6Kasten20ViewConfigControllerE@Base 4:14.12.0
 _ZTVN6Kasten20ViewStatusControllerE@Base 4:14.12.0
 _ZTVN6Kasten21CharsetConversionToolE@Base 4:14.12.0
 _ZTVN6Kasten21FilterToolViewFactoryE@Base 4:14.12.0
 _ZTVN6Kasten21PodDecoderToolFactoryE@Base 4:14.12.0
 _ZTVN6Kasten21SelectRangeControllerE@Base 4:14.12.0
 _ZTVN6Kasten21StructuresToolFactoryE@Base 4:14.12.0
 _ZTVN6Kasten21ViewProfileControllerE@Base 4:14.12.0
 _ZTVN6Kasten22StringsExtractToolViewE@Base 4:14.12.0
 _ZTVN6Kasten23ChecksumToolViewFactoryE@Base 4:14.12.0
 _ZTVN6Kasten23OverwriteModeControllerE@Base 4:14.12.0
 _ZTVN6Kasten24BookmarksToolViewFactoryE@Base 4:14.12.0
 _ZTVN6Kasten24ByteTableToolViewFactoryE@Base 4:14.12.0
 _ZTVN6Kasten25CharsetConversionToolViewE@Base 4:14.12.0
 _ZTVN6Kasten25PodDecoderToolViewFactoryE@Base 4:14.12.0
 _ZTVN6Kasten25StringsExtractToolFactoryE@Base 4:14.12.0
 _ZTVN6Kasten25StructuresToolViewFactoryE@Base 4:14.12.0
 _ZTVN6Kasten28CharsetConversionToolFactoryE@Base 4:14.12.0
 _ZTVN6Kasten28ViewProfilesManageControllerE@Base 4:14.12.0
 _ZTVN6Kasten29StringsExtractToolViewFactoryE@Base 4:14.12.0
 _ZTVN6Kasten32CharsetConversionToolViewFactoryE@Base 4:14.12.0
 _ZTVN6Kasten8InfoToolE@Base 4:14.12.0
 _ZThn16_N6Kasten16SearchControllerD0Ev@Base 4:14.12.0
 _ZThn16_N6Kasten16SearchControllerD1Ev@Base 4:14.12.0
 _ZThn16_N6Kasten17ReplaceControllerD0Ev@Base 4:14.12.0
 _ZThn16_N6Kasten17ReplaceControllerD1Ev@Base 4:14.12.0
 _ZThn16_NK6Kasten16SearchController13queryContinueENS_14KFindDirectionE@Base 4:14.12.0
 _ZThn16_NK6Kasten17ReplaceController13queryContinueENS_14KFindDirectionEi@Base 4:14.12.0
 _ZThn16_NK6Kasten17ReplaceController19queryReplaceCurrentEv@Base 4:14.12.0
