libkasten3okteta1gui.so.1 libkasten3okteta1gui1 #MINVER#
 _ZN12KConfigGroup10writeEntryIbEEvPKcRKT_6QFlagsIN11KConfigBase15WriteConfigFlagEE@Base 4:14.12.0
 _ZN12KConfigGroup10writeEntryIiEEvPKcRKT_6QFlagsIN11KConfigBase15WriteConfigFlagEE@Base 4:14.12.0
 _ZN6Kasten13ByteArrayView10insertDataEPK9QMimeData@Base 4:14.12.0
 _ZN6Kasten13ByteArrayView10setMarkingERKN3KDE11NumberRangeIiiEEb@Base 4:14.12.0
 _ZN6Kasten13ByteArrayView11qt_metacallEN11QMetaObject4CallEiPPv@Base 4:14.12.0
 _ZN6Kasten13ByteArrayView11qt_metacastEPKc@Base 4:14.12.0
 _ZN6Kasten13ByteArrayView11setReadOnlyEb@Base 4:14.12.0
 _ZN6Kasten13ByteArrayView12setSelectionEii@Base 4:14.12.0
 _ZN6Kasten13ByteArrayView12setViewModusEi@Base 4:14.12.0
 _ZN6Kasten13ByteArrayView12setZoomLevelEd@Base 4:14.12.0
 _ZN6Kasten13ByteArrayView13selectAllDataEb@Base 4:14.12.0
 _ZN6Kasten13ByteArrayView13setCharCodingERK7QString@Base 4:14.12.0
 _ZN6Kasten13ByteArrayView14setLayoutStyleEi@Base 4:14.12.0
 _ZN6Kasten13ByteArrayView14setValueCodingEi@Base 4:14.12.0
 _ZN6Kasten13ByteArrayView15cutSelectedDataEv@Base 4:14.12.0
 _ZN6Kasten13ByteArrayView15setOffsetCodingEi@Base 4:14.12.0
 _ZN6Kasten13ByteArrayView16charCodecChangedERK7QString@Base 4:14.12.0
 _ZN6Kasten13ByteArrayView16setOverwriteModeEb@Base 4:14.12.0
 _ZN6Kasten13ByteArrayView16setUndefinedCharE5QChar@Base 4:14.12.0
 _ZN6Kasten13ByteArrayView16staticMetaObjectE@Base 4:14.12.0
 _ZN6Kasten13ByteArrayView16viewModusChangedEi@Base 4:14.12.0
 _ZN6Kasten13ByteArrayView16zoomLevelChangedEd@Base 4:14.12.0
 _ZN6Kasten13ByteArrayView17setCursorPositionEi@Base 4:14.12.0
 _ZN6Kasten13ByteArrayView17setSubstituteCharE5QChar@Base 4:14.12.0
 _ZN6Kasten13ByteArrayView18deleteSelectedDataEv@Base 4:14.12.0
 _ZN6Kasten13ByteArrayView18layoutStyleChangedEi@Base 4:14.12.0
 _ZN6Kasten13ByteArrayView18onSelectionChangedERKN3KDE11NumberRangeIiiEE@Base 4:14.12.0
 _ZN6Kasten13ByteArrayView18toggleOffsetColumnEb@Base 4:14.12.0
 _ZN6Kasten13ByteArrayView18valueCodingChangedEi@Base 4:14.12.0
 _ZN6Kasten13ByteArrayView19offsetCodingChangedEi@Base 4:14.12.0
 _ZN6Kasten13ByteArrayView19selectedDataChangedEPKNS_22AbstractModelSelectionE@Base 4:14.12.0
 _ZN6Kasten13ByteArrayView19setNoOfBytesPerLineEi@Base 4:14.12.0
 _ZN6Kasten13ByteArrayView19setNoOfGroupedBytesEi@Base 4:14.12.0
 _ZN6Kasten13ByteArrayView19setShowsNonprintingEb@Base 4:14.12.0
 _ZN6Kasten13ByteArrayView20overwriteModeChangedEb@Base 4:14.12.0
 _ZN6Kasten13ByteArrayView20undefinedCharChangedE5QChar@Base 4:14.12.0
 _ZN6Kasten13ByteArrayView21cursorPositionChangedEi@Base 4:14.12.0
 _ZN6Kasten13ByteArrayView21substituteCharChangedE5QChar@Base 4:14.12.0
 _ZN6Kasten13ByteArrayView22hasSelectedDataChangedEb@Base 4:14.12.0
 _ZN6Kasten13ByteArrayView23noOfBytesPerLineChangedEi@Base 4:14.12.0
 _ZN6Kasten13ByteArrayView23noOfGroupedBytesChangedEi@Base 4:14.12.0
 _ZN6Kasten13ByteArrayView23setFontByGlobalSettingsEv@Base 4:14.12.0
 _ZN6Kasten13ByteArrayView23showsNonprintingChangedEb@Base 4:14.12.0
 _ZN6Kasten13ByteArrayView26offsetColumnVisibleChangedEb@Base 4:14.12.0
 _ZN6Kasten13ByteArrayView26setSelectionCursorPositionEi@Base 4:14.12.0
 _ZN6Kasten13ByteArrayView26setVisibleByteArrayCodingsEi@Base 4:14.12.0
 _ZN6Kasten13ByteArrayView30visibleByteArrayCodingsChangedEi@Base 4:14.12.0
 _ZN6Kasten13ByteArrayView4initEv@Base 4:14.12.0
 _ZN6Kasten13ByteArrayView6insertERK10QByteArray@Base 4:14.12.0
 _ZN6Kasten13ByteArrayView8setFocusEv@Base 4:14.12.0
 _ZN6Kasten13ByteArrayViewC1EPNS_17ByteArrayDocumentEPNS_32ByteArrayViewProfileSynchronizerE@Base 4:14.12.0
 _ZN6Kasten13ByteArrayViewC1EPS0_PNS_32ByteArrayViewProfileSynchronizerE6QFlagsIN2Qt13AlignmentFlagEE@Base 4:14.12.0
 _ZN6Kasten13ByteArrayViewC2EPNS_17ByteArrayDocumentEPNS_32ByteArrayViewProfileSynchronizerE@Base 4:14.12.0
 _ZN6Kasten13ByteArrayViewC2EPS0_PNS_32ByteArrayViewProfileSynchronizerE6QFlagsIN2Qt13AlignmentFlagEE@Base 4:14.12.0
 _ZN6Kasten13ByteArrayViewD0Ev@Base 4:14.12.0
 _ZN6Kasten13ByteArrayViewD1Ev@Base 4:14.12.0
 _ZN6Kasten13ByteArrayViewD2Ev@Base 4:14.12.0
 _ZN6Kasten19AbstractViewFactory16createCopyOfViewEPNS_12AbstractViewE6QFlagsIN2Qt13AlignmentFlagEE@Base 4:16.04.3
 _ZN6Kasten20ByteArrayViewFactory13createViewForEPNS_16AbstractDocumentE@Base 4:14.12.0
 _ZN6Kasten20ByteArrayViewFactory16createCopyOfViewEPNS_12AbstractViewE6QFlagsIN2Qt13AlignmentFlagEE@Base 4:14.12.0
 _ZN6Kasten20ByteArrayViewFactoryC1EPNS_27ByteArrayViewProfileManagerE@Base 4:14.12.0
 _ZN6Kasten20ByteArrayViewFactoryC2EPNS_27ByteArrayViewProfileManagerE@Base 4:14.12.0
 _ZN6Kasten20ByteArrayViewProfile12setViewModusEi@Base 4:14.12.0
 _ZN6Kasten20ByteArrayViewProfile13setCharCodingERK7QString@Base 4:14.12.0
 _ZN6Kasten20ByteArrayViewProfile14setLayoutStyleEi@Base 4:14.12.0
 _ZN6Kasten20ByteArrayViewProfile14setValueCodingEi@Base 4:14.12.0
 _ZN6Kasten20ByteArrayViewProfile15setOffsetCodingEi@Base 4:14.12.0
 _ZN6Kasten20ByteArrayViewProfile16setUndefinedCharERK5QChar@Base 4:14.12.0
 _ZN6Kasten20ByteArrayViewProfile17setSubstituteCharERK5QChar@Base 4:14.12.0
 _ZN6Kasten20ByteArrayViewProfile19setNoOfBytesPerLineEi@Base 4:14.12.0
 _ZN6Kasten20ByteArrayViewProfile19setNoOfGroupedBytesEi@Base 4:14.12.0
 _ZN6Kasten20ByteArrayViewProfile19setShowsNonprintingEb@Base 4:14.12.0
 _ZN6Kasten20ByteArrayViewProfile19setViewProfileTitleERK7QString@Base 4:14.12.0
 _ZN6Kasten20ByteArrayViewProfile22setOffsetColumnVisibleEb@Base 4:14.12.0
 _ZN6Kasten20ByteArrayViewProfile26setVisibleByteArrayCodingsEi@Base 4:14.12.0
 _ZN6Kasten20ByteArrayViewProfile5setIdERK7QString@Base 4:14.12.0
 _ZN6Kasten20ByteArrayViewProfileC1ERKS0_@Base 4:14.12.0
 _ZN6Kasten20ByteArrayViewProfileC1Ev@Base 4:14.12.0
 _ZN6Kasten20ByteArrayViewProfileC2ERKS0_@Base 4:14.12.0
 _ZN6Kasten20ByteArrayViewProfileC2Ev@Base 4:14.12.0
 _ZN6Kasten20ByteArrayViewProfileD1Ev@Base 4:14.12.0
 _ZN6Kasten20ByteArrayViewProfileD2Ev@Base 4:14.12.0
 _ZN6Kasten20ByteArrayViewProfileaSERKS0_@Base 4:14.12.0
 _ZN6Kasten24ByteArrayViewProfileLock6unlockEv@Base 4:14.12.0
 _ZN6Kasten24ByteArrayViewProfileLockC1ERK7QStringS3_@Base 4:14.12.0
 _ZN6Kasten24ByteArrayViewProfileLockC1ERKS0_@Base 4:14.12.0
 _ZN6Kasten24ByteArrayViewProfileLockC2ERK7QStringS3_@Base 4:14.12.0
 _ZN6Kasten24ByteArrayViewProfileLockC2ERKS0_@Base 4:14.12.0
 _ZN6Kasten24ByteArrayViewProfileLockD1Ev@Base 4:14.12.0
 _ZN6Kasten24ByteArrayViewProfileLockD2Ev@Base 4:14.12.0
 _ZN6Kasten24ByteArrayViewProfileLockaSERKS0_@Base 4:14.12.0
 _ZN6Kasten27ByteArrayViewProfileManager10createLockERK7QString@Base 4:14.12.0
 _ZN6Kasten27ByteArrayViewProfileManager11qt_metacallEN11QMetaObject4CallEiPPv@Base 4:14.12.0
 _ZN6Kasten27ByteArrayViewProfileManager11qt_metacastEPKc@Base 4:14.12.0
 _ZN6Kasten27ByteArrayViewProfileManager16saveViewProfilesER5QListINS_20ByteArrayViewProfileEE@Base 4:14.12.0
 _ZN6Kasten27ByteArrayViewProfileManager16staticMetaObjectE@Base 4:14.12.0
 _ZN6Kasten27ByteArrayViewProfileManager17removeViewProfileERK7QString@Base 4:14.12.0
 _ZN6Kasten27ByteArrayViewProfileManager18removeViewProfilesERK5QListI7QStringE@Base 4:14.12.0
 _ZN6Kasten27ByteArrayViewProfileManager18viewProfilesLockedERK5QListI7QStringE@Base 4:14.12.0
 _ZN6Kasten27ByteArrayViewProfileManager19viewProfilesChangedERK5QListINS_20ByteArrayViewProfileEE@Base 4:14.12.0
 _ZN6Kasten27ByteArrayViewProfileManager19viewProfilesRemovedERK5QListI7QStringE@Base 4:14.12.0
 _ZN6Kasten27ByteArrayViewProfileManager20viewProfilesUnlockedERK5QListI7QStringE@Base 4:14.12.0
 _ZN6Kasten27ByteArrayViewProfileManager21setDefaultViewProfileERK7QString@Base 4:14.12.0
 _ZN6Kasten27ByteArrayViewProfileManager25defaultViewProfileChangedERK7QString@Base 4:14.12.0
 _ZN6Kasten27ByteArrayViewProfileManager27onDefaultViewProfileChangedERK7QString@Base 4:14.12.0
 _ZN6Kasten27ByteArrayViewProfileManager27onViewProfilesFolderChangedERK7QString@Base 4:14.12.0
 _ZN6Kasten27ByteArrayViewProfileManagerC1Ev@Base 4:14.12.0
 _ZN6Kasten27ByteArrayViewProfileManagerC2Ev@Base 4:14.12.0
 _ZN6Kasten27ByteArrayViewProfileManagerD0Ev@Base 4:14.12.0
 _ZN6Kasten27ByteArrayViewProfileManagerD1Ev@Base 4:14.12.0
 _ZN6Kasten27ByteArrayViewProfileManagerD2Ev@Base 4:14.12.0
 _ZN6Kasten29ByteArrayDataGeneratorFactory20createDataGeneratorsEv@Base 4:14.12.0
 _ZN6Kasten29ByteArrayStreamEncoderFactory20createStreamEncodersEv@Base 4:14.12.0
 _ZN6Kasten30AbstractByteArrayStreamEncoder11previewDataEPNS_13AbstractModelEPKNS_22AbstractModelSelectionE@Base 4:14.12.0
 _ZN6Kasten30AbstractByteArrayStreamEncoder11qt_metacallEN11QMetaObject4CallEiPPv@Base 4:14.12.0
 _ZN6Kasten30AbstractByteArrayStreamEncoder11qt_metacastEPKc@Base 4:14.12.0
 _ZN6Kasten30AbstractByteArrayStreamEncoder14encodeToStreamEP9QIODevicePNS_13AbstractModelEPKNS_22AbstractModelSelectionE@Base 4:14.12.0
 _ZN6Kasten30AbstractByteArrayStreamEncoder15settingsChangedEv@Base 4:14.12.0
 _ZN6Kasten30AbstractByteArrayStreamEncoder16staticMetaObjectE@Base 4:14.12.0
 _ZN6Kasten30AbstractByteArrayStreamEncoderC1ERK7QStringS3_@Base 4:14.12.0
 _ZN6Kasten30AbstractByteArrayStreamEncoderC2ERK7QStringS3_@Base 4:14.12.0
 _ZN6Kasten30AbstractByteArrayStreamEncoderD0Ev@Base 4:14.12.0
 _ZN6Kasten30AbstractByteArrayStreamEncoderD1Ev@Base 4:14.12.0
 _ZN6Kasten30AbstractByteArrayStreamEncoderD2Ev@Base 4:14.12.0
 _ZN6Kasten32ByteArrayViewProfileSynchronizer10updateViewERKNS_20ByteArrayViewProfileE@Base 4:14.12.0
 _ZN6Kasten32ByteArrayViewProfileSynchronizer11qt_metacallEN11QMetaObject4CallEiPPv@Base 4:14.12.0
 _ZN6Kasten32ByteArrayViewProfileSynchronizer11qt_metacastEPKc@Base 4:14.12.0
 _ZN6Kasten32ByteArrayViewProfileSynchronizer12setDirtyFlagEi@Base 4:14.12.0
 _ZN6Kasten32ByteArrayViewProfileSynchronizer12syncToRemoteEv@Base 4:14.12.0
 _ZN6Kasten32ByteArrayViewProfileSynchronizer14syncFromRemoteEv@Base 4:14.12.0
 _ZN6Kasten32ByteArrayViewProfileSynchronizer16setViewProfileIdERK7QString@Base 4:14.12.0
 _ZN6Kasten32ByteArrayViewProfileSynchronizer16staticMetaObjectE@Base 4:14.12.0
 _ZN6Kasten32ByteArrayViewProfileSynchronizer17updateViewProfileERNS_20ByteArrayViewProfileE@Base 4:14.12.0
 _ZN6Kasten32ByteArrayViewProfileSynchronizer18connectViewSignalsEv@Base 4:14.12.0
 _ZN6Kasten32ByteArrayViewProfileSynchronizer18onCharCodecChangedEv@Base 4:14.12.0
 _ZN6Kasten32ByteArrayViewProfileSynchronizer18onViewModusChangedEv@Base 4:14.12.0
 _ZN6Kasten32ByteArrayViewProfileSynchronizer18viewProfileChangedERK7QString@Base 4:14.12.0
 _ZN6Kasten32ByteArrayViewProfileSynchronizer20onLayoutStyleChangedEv@Base 4:14.12.0
 _ZN6Kasten32ByteArrayViewProfileSynchronizer20onValueCodingChangedEv@Base 4:14.12.0
 _ZN6Kasten32ByteArrayViewProfileSynchronizer21localSyncStateChangedENS_14LocalSyncStateE@Base 4:14.12.0
 _ZN6Kasten32ByteArrayViewProfileSynchronizer21onOffsetCodingChangedEv@Base 4:14.12.0
 _ZN6Kasten32ByteArrayViewProfileSynchronizer21onViewProfilesChangedERK5QListINS_20ByteArrayViewProfileEE@Base 4:14.12.0
 _ZN6Kasten32ByteArrayViewProfileSynchronizer21onViewProfilesRemovedERK5QListI7QStringE@Base 4:14.12.0
 _ZN6Kasten32ByteArrayViewProfileSynchronizer22onUndefinedCharChangedEv@Base 4:14.12.0
 _ZN6Kasten32ByteArrayViewProfileSynchronizer23onSubstituteCharChangedEv@Base 4:14.12.0
 _ZN6Kasten32ByteArrayViewProfileSynchronizer25onNoOfBytesPerLineChangedEv@Base 4:14.12.0
 _ZN6Kasten32ByteArrayViewProfileSynchronizer25onNoOfGroupedBytesChangedEv@Base 4:14.12.0
 _ZN6Kasten32ByteArrayViewProfileSynchronizer25onShowsNonprintingChangedEv@Base 4:14.12.0
 _ZN6Kasten32ByteArrayViewProfileSynchronizer28onOffsetColumnVisibleChangedEv@Base 4:14.12.0
 _ZN6Kasten32ByteArrayViewProfileSynchronizer32onVisibleByteArrayCodingsChangedEv@Base 4:14.12.0
 _ZN6Kasten32ByteArrayViewProfileSynchronizer7setViewEPNS_13ByteArrayViewE@Base 4:14.12.0
 _ZN6Kasten32ByteArrayViewProfileSynchronizerC1EPNS_27ByteArrayViewProfileManagerE@Base 4:14.12.0
 _ZN6Kasten32ByteArrayViewProfileSynchronizerC2EPNS_27ByteArrayViewProfileManagerE@Base 4:14.12.0
 _ZN6Kasten48ByteArrayDataGeneratorConfigEditorFactoryFactory14createFactorysEv@Base 4:14.12.0
 _ZN6Kasten48ByteArrayStreamEncoderConfigEditorFactoryFactory14createFactorysEv@Base 4:14.12.0
 _ZN6Okteta15AddressComboBox11qt_metacallEN11QMetaObject4CallEiPPv@Base 4:14.12.0
 _ZN6Okteta15AddressComboBox11qt_metacastEPKc@Base 4:14.12.0
 _ZN6Okteta15AddressComboBox13formatChangedEi@Base 4:14.12.0
 _ZN6Okteta15AddressComboBox14addressChangedEi@Base 4:14.12.0
 _ZN6Okteta15AddressComboBox16staticMetaObjectE@Base 4:14.12.0
 _ZN6Okteta15AddressComboBox18addressTypeChangedEi@Base 4:14.12.0
 _ZN6Okteta15AddressComboBox22rememberCurrentAddressEv@Base 4:14.12.0
 _ZN6Okteta15AddressComboBoxC1EP7QWidget@Base 4:14.12.0
 _ZN6Okteta15AddressComboBoxC2EP7QWidget@Base 4:14.12.0
 _ZN6Okteta15AddressComboBoxD0Ev@Base 4:14.12.0
 _ZN6Okteta15AddressComboBoxD1Ev@Base 4:14.12.0
 _ZN6Okteta15AddressComboBoxD2Ev@Base 4:14.12.0
 _ZN6Okteta17ByteArrayComboBox11qt_metacallEN11QMetaObject4CallEiPPv@Base 4:14.12.0
 _ZN6Okteta17ByteArrayComboBox11qt_metacastEPKc@Base 4:14.12.0
 _ZN6Okteta17ByteArrayComboBox12setByteArrayERK10QByteArray@Base 4:14.12.0
 _ZN6Okteta17ByteArrayComboBox12setCharCodecERK7QString@Base 4:14.12.0
 _ZN6Okteta17ByteArrayComboBox12setMaxLengthEi@Base 4:14.12.0
 _ZN6Okteta17ByteArrayComboBox12setMinLengthEi@Base 4:14.12.0
 _ZN6Okteta17ByteArrayComboBox13formatChangedEi@Base 4:14.12.0
 _ZN6Okteta17ByteArrayComboBox16byteArrayChangedERK10QByteArray@Base 4:14.12.0
 _ZN6Okteta17ByteArrayComboBox16staticMetaObjectE@Base 4:14.12.0
 _ZN6Okteta17ByteArrayComboBox24rememberCurrentByteArrayEv@Base 4:14.12.0
 _ZN6Okteta17ByteArrayComboBoxC1EP7QWidget@Base 4:14.12.0
 _ZN6Okteta17ByteArrayComboBoxC2EP7QWidget@Base 4:14.12.0
 _ZN6Okteta17ByteArrayComboBoxD0Ev@Base 4:14.12.0
 _ZN6Okteta17ByteArrayComboBoxD1Ev@Base 4:14.12.0
 _ZN6Okteta17ByteArrayComboBoxD2Ev@Base 4:14.12.0
 _ZNK12KConfigGroup9readEntryIbEET_PKcRKS1_@Base 4:14.12.0
 _ZNK12KConfigGroup9readEntryIiEET_PKcRKS1_@Base 4:14.12.0
 _ZNK6Kasten13ByteArrayView10cursorRectEv@Base 4:14.12.0
 _ZNK6Kasten13ByteArrayView10isReadOnlyEv@Base 4:14.12.0
 _ZNK6Kasten13ByteArrayView10metaObjectEv@Base 4:14.12.0
 _ZNK6Kasten13ByteArrayView11canReadDataEPK9QMimeData@Base 4:14.12.0
 _ZNK6Kasten13ByteArrayView11layoutStyleEv@Base 4:14.12.0
 _ZNK6Kasten13ByteArrayView11startOffsetEv@Base 4:14.12.0
 _ZNK6Kasten13ByteArrayView11valueCodingEv@Base 4:14.12.0
 _ZNK6Kasten13ByteArrayView12isModifiableEv@Base 4:14.12.0
 _ZNK6Kasten13ByteArrayView12offsetCodingEv@Base 4:14.12.0
 _ZNK6Kasten13ByteArrayView12synchronizerEv@Base 4:14.12.0
 _ZNK6Kasten13ByteArrayView13undefinedCharEv@Base 4:14.12.0
 _ZNK6Kasten13ByteArrayView14binaryGapWidthEv@Base 4:14.12.0
 _ZNK6Kasten13ByteArrayView14charCodingNameEv@Base 4:14.12.0
 _ZNK6Kasten13ByteArrayView14cursorPositionEv@Base 4:14.12.0
 _ZNK6Kasten13ByteArrayView14modelSelectionEv@Base 4:14.12.0
 _ZNK6Kasten13ByteArrayView14substituteCharEv@Base 4:14.12.0
 _ZNK6Kasten13ByteArrayView15firstLineOffsetEv@Base 4:14.12.0
 _ZNK6Kasten13ByteArrayView15hasSelectedDataEv@Base 4:14.12.0
 _ZNK6Kasten13ByteArrayView15isOverwriteModeEv@Base 4:14.12.0
 _ZNK6Kasten13ByteArrayView15isOverwriteOnlyEv@Base 4:14.12.0
 _ZNK6Kasten13ByteArrayView16byteSpacingWidthEv@Base 4:14.12.0
 _ZNK6Kasten13ByteArrayView16copySelectedDataEv@Base 4:14.12.0
 _ZNK6Kasten13ByteArrayView16noOfBytesPerLineEv@Base 4:14.12.0
 _ZNK6Kasten13ByteArrayView16noOfGroupedBytesEv@Base 4:14.12.0
 _ZNK6Kasten13ByteArrayView16showsNonprintingEv@Base 4:14.12.0
 _ZNK6Kasten13ByteArrayView17groupSpacingWidthEv@Base 4:14.12.0
 _ZNK6Kasten13ByteArrayView19offsetColumnVisibleEv@Base 4:14.12.0
 _ZNK6Kasten13ByteArrayView23visibleByteArrayCodingsEv@Base 4:14.12.0
 _ZNK6Kasten13ByteArrayView5titleEv@Base 4:14.12.0
 _ZNK6Kasten13ByteArrayView6widgetEv@Base 4:14.12.0
 _ZNK6Kasten13ByteArrayView8hasFocusEv@Base 4:14.12.0
 _ZNK6Kasten13ByteArrayView9selectionEv@Base 4:14.12.0
 _ZNK6Kasten13ByteArrayView9viewModusEv@Base 4:14.12.0
 _ZNK6Kasten13ByteArrayView9zoomLevelEv@Base 4:14.12.0
 _ZNK6Kasten20ByteArrayViewProfile11layoutStyleEv@Base 4:14.12.0
 _ZNK6Kasten20ByteArrayViewProfile11valueCodingEv@Base 4:14.12.0
 _ZNK6Kasten20ByteArrayViewProfile12offsetCodingEv@Base 4:14.12.0
 _ZNK6Kasten20ByteArrayViewProfile13undefinedCharEv@Base 4:14.12.0
 _ZNK6Kasten20ByteArrayViewProfile14charCodingNameEv@Base 4:14.12.0
 _ZNK6Kasten20ByteArrayViewProfile14substituteCharEv@Base 4:14.12.0
 _ZNK6Kasten20ByteArrayViewProfile16noOfBytesPerLineEv@Base 4:14.12.0
 _ZNK6Kasten20ByteArrayViewProfile16noOfGroupedBytesEv@Base 4:14.12.0
 _ZNK6Kasten20ByteArrayViewProfile16showsNonprintingEv@Base 4:14.12.0
 _ZNK6Kasten20ByteArrayViewProfile16viewProfileTitleEv@Base 4:14.12.0
 _ZNK6Kasten20ByteArrayViewProfile19offsetColumnVisibleEv@Base 4:14.12.0
 _ZNK6Kasten20ByteArrayViewProfile23visibleByteArrayCodingsEv@Base 4:14.12.0
 _ZNK6Kasten20ByteArrayViewProfile2idEv@Base 4:14.12.0
 _ZNK6Kasten20ByteArrayViewProfile9viewModusEv@Base 4:14.12.0
 _ZNK6Kasten24ByteArrayViewProfileLock13viewProfileIdEv@Base 4:14.12.0
 _ZNK6Kasten24ByteArrayViewProfileLock8isLockedEv@Base 4:14.12.0
 _ZNK6Kasten27ByteArrayViewProfileManager10metaObjectEv@Base 4:14.12.0
 _ZNK6Kasten27ByteArrayViewProfileManager11viewProfileERK7QString@Base 4:14.12.0
 _ZNK6Kasten27ByteArrayViewProfileManager12viewProfilesEv@Base 4:14.12.0
 _ZNK6Kasten27ByteArrayViewProfileManager15loadViewProfileERK7QString@Base 4:14.12.0
 _ZNK6Kasten27ByteArrayViewProfileManager15saveViewProfileERKNS_20ByteArrayViewProfileE@Base 4:14.12.0
 _ZNK6Kasten27ByteArrayViewProfileManager17viewProfilesCountEv@Base 4:14.12.0
 _ZNK6Kasten27ByteArrayViewProfileManager18defaultViewProfileEv@Base 4:14.12.0
 _ZNK6Kasten27ByteArrayViewProfileManager19isViewProfileLockedERK7QString@Base 4:14.12.0
 _ZNK6Kasten27ByteArrayViewProfileManager20defaultViewProfileIdEv@Base 4:14.12.0
 _ZNK6Kasten27ByteArrayViewProfileManager21filePathOfViewProfileERK7QString@Base 4:14.12.0
 _ZNK6Kasten30AbstractByteArrayStreamEncoder10metaObjectEv@Base 4:14.12.0
 _ZNK6Kasten30AbstractByteArrayStreamEncoder13modelTypeNameEPNS_13AbstractModelEPKNS_22AbstractModelSelectionE@Base 4:14.12.0
 _ZNK6Kasten32ByteArrayViewProfileSynchronizer10metaObjectEv@Base 4:14.12.0
 _ZNK6Kasten32ByteArrayViewProfileSynchronizer14localSyncStateEv@Base 4:14.12.0
 _ZNK6Okteta15AddressComboBox10metaObjectEv@Base 4:14.12.0
 _ZNK6Okteta15AddressComboBox11addressTypeEv@Base 4:14.12.0
 _ZNK6Okteta15AddressComboBox6formatEv@Base 4:14.12.0
 _ZNK6Okteta15AddressComboBox7addressEv@Base 4:14.12.0
 _ZNK6Okteta17ByteArrayComboBox10metaObjectEv@Base 4:14.12.0
 _ZNK6Okteta17ByteArrayComboBox6formatEv@Base 4:14.12.0
 _ZNK6Okteta17ByteArrayComboBox9byteArrayEv@Base 4:14.12.0
 _ZNK6Okteta17ByteArrayComboBox9maxLengthEv@Base 4:14.12.0
 _ZNK6Okteta17ByteArrayComboBox9minLengthEv@Base 4:14.12.0
 _ZTIN6Kasten13ByteArrayViewE@Base 4:15.04.0
 _ZTIN6Kasten19AbstractViewFactoryE@Base 4:15.04.0
 _ZTIN6Kasten20ByteArrayViewFactoryE@Base 4:15.04.0
 _ZTIN6Kasten27ByteArrayViewProfileManagerE@Base 4:15.04.0
 _ZTIN6Kasten30AbstractByteArrayStreamEncoderE@Base 4:15.04.0
 _ZTIN6Kasten32ByteArrayViewProfileSynchronizerE@Base 4:15.04.0
 _ZTIN6Kasten45AbstractModelDataGeneratorConfigEditorFactoryE@Base 4:15.04.0
 _ZTIN6Kasten45AbstractModelStreamEncoderConfigEditorFactoryE@Base 4:15.04.0
 _ZTIN6Okteta15AddressComboBoxE@Base 4:15.04.0
 _ZTIN6Okteta17ByteArrayComboBoxE@Base 4:15.04.0
 _ZTSN6Kasten13ByteArrayViewE@Base 4:15.04.0
 _ZTSN6Kasten19AbstractViewFactoryE@Base 4:15.04.0
 _ZTSN6Kasten20ByteArrayViewFactoryE@Base 4:15.04.0
 _ZTSN6Kasten27ByteArrayViewProfileManagerE@Base 4:15.04.0
 _ZTSN6Kasten30AbstractByteArrayStreamEncoderE@Base 4:15.04.0
 _ZTSN6Kasten32ByteArrayViewProfileSynchronizerE@Base 4:15.04.0
 _ZTSN6Kasten45AbstractModelDataGeneratorConfigEditorFactoryE@Base 4:15.04.0
 _ZTSN6Kasten45AbstractModelStreamEncoderConfigEditorFactoryE@Base 4:15.04.0
 _ZTSN6Okteta15AddressComboBoxE@Base 4:15.04.0
 _ZTSN6Okteta17ByteArrayComboBoxE@Base 4:15.04.0
 _ZTVN6Kasten13ByteArrayViewE@Base 4:14.12.0
 _ZTVN6Kasten19AbstractViewFactoryE@Base 4:15.08.0
 _ZTVN6Kasten20ByteArrayViewFactoryE@Base 4:14.12.0
 _ZTVN6Kasten27ByteArrayViewProfileManagerE@Base 4:14.12.0
 _ZTVN6Kasten30AbstractByteArrayStreamEncoderE@Base 4:14.12.0
 _ZTVN6Kasten32ByteArrayViewProfileSynchronizerE@Base 4:14.12.0
 _ZTVN6Kasten45AbstractModelDataGeneratorConfigEditorFactoryE@Base 4:15.08.0
 _ZTVN6Kasten45AbstractModelStreamEncoderConfigEditorFactoryE@Base 4:15.08.0
 _ZTVN6Okteta15AddressComboBoxE@Base 4:14.12.0
 _ZTVN6Okteta17ByteArrayComboBoxE@Base 4:14.12.0
 _ZThn16_N6Okteta15AddressComboBoxD0Ev@Base 4:14.12.0
 _ZThn16_N6Okteta15AddressComboBoxD1Ev@Base 4:14.12.0
 _ZThn16_N6Okteta17ByteArrayComboBoxD0Ev@Base 4:14.12.0
 _ZThn16_N6Okteta17ByteArrayComboBoxD1Ev@Base 4:14.12.0
 _ZThn24_N6Kasten13ByteArrayView12setZoomLevelEd@Base 4:14.12.0
 _ZThn24_N6Kasten13ByteArrayView16zoomLevelChangedEd@Base 4:14.12.0
 _ZThn24_N6Kasten13ByteArrayViewD0Ev@Base 4:14.12.0
 _ZThn24_N6Kasten13ByteArrayViewD1Ev@Base 4:14.12.0
 _ZThn24_NK6Kasten13ByteArrayView9zoomLevelEv@Base 4:14.12.0
 _ZThn32_N6Kasten13ByteArrayView13selectAllDataEb@Base 4:14.12.0
 _ZThn32_N6Kasten13ByteArrayView19selectedDataChangedEPKNS_22AbstractModelSelectionE@Base 4:14.12.0
 _ZThn32_N6Kasten13ByteArrayView22hasSelectedDataChangedEb@Base 4:14.12.0
 _ZThn32_N6Kasten13ByteArrayViewD0Ev@Base 4:14.12.0
 _ZThn32_N6Kasten13ByteArrayViewD1Ev@Base 4:14.12.0
 _ZThn32_NK6Kasten13ByteArrayView14modelSelectionEv@Base 4:14.12.0
 _ZThn32_NK6Kasten13ByteArrayView15hasSelectedDataEv@Base 4:14.12.0
 _ZThn32_NK6Kasten13ByteArrayView16copySelectedDataEv@Base 4:14.12.0
 _ZThn40_N6Kasten13ByteArrayView10insertDataEPK9QMimeData@Base 4:14.12.0
 _ZThn40_N6Kasten13ByteArrayView15cutSelectedDataEv@Base 4:14.12.0
 _ZThn40_N6Kasten13ByteArrayView18deleteSelectedDataEv@Base 4:14.12.0
 _ZThn40_N6Kasten13ByteArrayViewD0Ev@Base 4:14.12.0
 _ZThn40_N6Kasten13ByteArrayViewD1Ev@Base 4:14.12.0
 _ZThn40_NK6Kasten13ByteArrayView11canReadDataEPK9QMimeData@Base 4:14.12.0
