libkaccounts.so.1 libkaccounts1 #MINVER#
 _ZN16KAccountsDPlugin11qt_metacallEN11QMetaObject4CallEiPPv@Base 0.0
 _ZN16KAccountsDPlugin11qt_metacastEPKc@Base 0.0
 _ZN16KAccountsDPlugin16staticMetaObjectE@Base 0.0
 _ZN16KAccountsDPluginC1EP7QObject@Base 0.0
 _ZN16KAccountsDPluginC2EP7QObject@Base 0.0
 _ZN16KAccountsDPluginD0Ev@Base 0.0
 _ZN16KAccountsDPluginD1Ev@Base 0.0
 _ZN16KAccountsDPluginD2Ev@Base 0.0
 _ZN17GetCredentialsJob11qt_metacallEN11QMetaObject4CallEiPPv@Base 0.0
 _ZN17GetCredentialsJob11qt_metacastEPKc@Base 0.0
 _ZN17GetCredentialsJob14setServiceTypeERK7QString@Base 0.0
 _ZN17GetCredentialsJob16staticMetaObjectE@Base 0.0
 _ZN17GetCredentialsJob5startEv@Base 0.0
 _ZN17GetCredentialsJob7Private14getCredentialsEv@Base 0.0
 _ZN17GetCredentialsJobC1ERKjP7QObject@Base 0.0
 _ZN17GetCredentialsJobC1ERKjRK7QStringS4_P7QObject@Base 0.0
 _ZN17GetCredentialsJobC2ERKjP7QObject@Base 0.0
 _ZN17GetCredentialsJobC2ERKjRK7QStringS4_P7QObject@Base 0.0
 _ZN17KAccountsUiPlugin11qt_metacallEN11QMetaObject4CallEiPPv@Base 0.0
 _ZN17KAccountsUiPlugin11qt_metacastEPKc@Base 0.0
 _ZN17KAccountsUiPlugin13configUiReadyEv@Base 15.08.3
 _ZN17KAccountsUiPlugin16staticMetaObjectE@Base 0.0
 _ZN17KAccountsUiPlugin5errorERK7QString@Base 0.0
 _ZN17KAccountsUiPlugin7successERK7QStringS2_RK4QMapIS0_8QVariantE@Base 0.0
 _ZN17KAccountsUiPlugin7uiReadyEv@Base 0.0
 _ZN17KAccountsUiPluginC1EP7QObject@Base 0.0
 _ZN17KAccountsUiPluginC2EP7QObject@Base 0.0
 _ZN17KAccountsUiPluginD0Ev@Base 0.0
 _ZN17KAccountsUiPluginD1Ev@Base 0.0
 _ZN17KAccountsUiPluginD2Ev@Base 0.0
 _ZN9KAccounts15accountsManagerEv@Base 0.0
 _ZNK16KAccountsDPlugin10metaObjectEv@Base 0.0
 _ZNK17GetCredentialsJob10metaObjectEv@Base 0.0
 _ZNK17GetCredentialsJob15credentialsDataEv@Base 0.0
 _ZNK17GetCredentialsJob9accountIdEv@Base 0.0
 _ZNK17KAccountsUiPlugin10metaObjectEv@Base 0.0
 _ZNK17KAccountsUiPlugin15transientParentEv@Base 15.08.3
 _ZTI16KAccountsDPlugin@Base 0.0
 _ZTI17GetCredentialsJob@Base 0.0
 _ZTI17KAccountsUiPlugin@Base 0.0
 _ZTIN6SignOn5ErrorE@Base 0.0
 _ZTS16KAccountsDPlugin@Base 0.0
 _ZTS17GetCredentialsJob@Base 0.0
 _ZTS17KAccountsUiPlugin@Base 0.0
 _ZTSN6SignOn5ErrorE@Base 0.0
 _ZTV16KAccountsDPlugin@Base 0.0
 _ZTV17GetCredentialsJob@Base 0.0
 _ZTV17KAccountsUiPlugin@Base 0.0
 _ZTVN6SignOn5ErrorE@Base 0.0
