libkasten3core.so.3 libkasten3core3 #MINVER#
 _ZN6Kasten10JobManager10executeJobEP4KJob@Base 4:14.12.0
 _ZN6Kasten12AbstractTool11qt_metacallEN11QMetaObject4CallEiPPv@Base 4:14.12.0
 _ZN6Kasten12AbstractTool11qt_metacastEPKc@Base 4:14.12.0
 _ZN6Kasten12AbstractTool12titleChangedERK7QString@Base 4:14.12.0
 _ZN6Kasten12AbstractTool16staticMetaObjectE@Base 4:14.12.0
 _ZN6Kasten12AbstractToolC1Ev@Base 4:14.12.0
 _ZN6Kasten12AbstractToolC2Ev@Base 4:14.12.0
 _ZN6Kasten12AbstractToolD0Ev@Base 4:14.12.0
 _ZN6Kasten12AbstractToolD1Ev@Base 4:14.12.0
 _ZN6Kasten12AbstractToolD2Ev@Base 4:14.12.0
 _ZN6Kasten13AbstractModel11qt_metacallEN11QMetaObject4CallEiPPv@Base 4:14.12.0
 _ZN6Kasten13AbstractModel11qt_metacastEPKc@Base 4:14.12.0
 _ZN6Kasten13AbstractModel11setReadOnlyEb@Base 4:14.12.0
 _ZN6Kasten13AbstractModel12setBaseModelEPS0_@Base 4:14.12.0
 _ZN6Kasten13AbstractModel12titleChangedERK7QString@Base 4:14.12.0
 _ZN6Kasten13AbstractModel15readOnlyChangedEb@Base 4:14.12.0
 _ZN6Kasten13AbstractModel16staticMetaObjectE@Base 4:14.12.0
 _ZN6Kasten13AbstractModel17modifiableChangedEb@Base 4:14.12.0
 _ZN6Kasten13AbstractModelC1EPNS_20AbstractModelPrivateE@Base 4:14.12.0
 _ZN6Kasten13AbstractModelC1EPS0_@Base 4:14.12.0
 _ZN6Kasten13AbstractModelC2EPNS_20AbstractModelPrivateE@Base 4:14.12.0
 _ZN6Kasten13AbstractModelC2EPS0_@Base 4:14.12.0
 _ZN6Kasten13AbstractModelD0Ev@Base 4:14.12.0
 _ZN6Kasten13AbstractModelD1Ev@Base 4:14.12.0
 _ZN6Kasten13AbstractModelD2Ev@Base 4:14.12.0
 _ZN6Kasten15AbstractLoadJob11qt_metacallEN11QMetaObject4CallEiPPv@Base 4:14.12.0
 _ZN6Kasten15AbstractLoadJob11qt_metacastEPKc@Base 4:14.12.0
 _ZN6Kasten15AbstractLoadJob11setDocumentEPNS_16AbstractDocumentE@Base 4:14.12.0
 _ZN6Kasten15AbstractLoadJob14documentLoadedEPNS_16AbstractDocumentE@Base 4:14.12.0
 _ZN6Kasten15AbstractLoadJob16staticMetaObjectE@Base 4:14.12.0
 _ZN6Kasten15AbstractLoadJobC1EPNS_22AbstractLoadJobPrivateE@Base 4:14.12.0
 _ZN6Kasten15AbstractLoadJobC1Ev@Base 4:14.12.0
 _ZN6Kasten15AbstractLoadJobC2EPNS_22AbstractLoadJobPrivateE@Base 4:14.12.0
 _ZN6Kasten15AbstractLoadJobC2Ev@Base 4:14.12.0
 _ZN6Kasten15AbstractLoadJobD0Ev@Base 4:14.12.0
 _ZN6Kasten15AbstractLoadJobD1Ev@Base 4:14.12.0
 _ZN6Kasten15AbstractLoadJobD2Ev@Base 4:14.12.0
 _ZN6Kasten15DocumentManager11addDocumentEPNS_16AbstractDocumentE@Base 4:14.12.0
 _ZN6Kasten15DocumentManager11canCloseAllEv@Base 4:14.12.0
 _ZN6Kasten15DocumentManager11qt_metacallEN11QMetaObject4CallEiPPv@Base 4:14.12.0
 _ZN6Kasten15DocumentManager11qt_metacastEPKc@Base 4:14.12.0
 _ZN6Kasten15DocumentManager12requestFocusEPNS_16AbstractDocumentE@Base 4:14.12.0
 _ZN6Kasten15DocumentManager13closeAllOtherEPNS_16AbstractDocumentE@Base 4:14.12.0
 _ZN6Kasten15DocumentManager13closeDocumentEPNS_16AbstractDocumentE@Base 4:14.12.0
 _ZN6Kasten15DocumentManager14closeDocumentsERK5QListIPNS_16AbstractDocumentEE@Base 4:14.12.0
 _ZN6Kasten15DocumentManager14focusRequestedEPNS_16AbstractDocumentE@Base 4:14.12.0
 _ZN6Kasten15DocumentManager16canCloseAllOtherEPNS_16AbstractDocumentE@Base 4:14.12.0
 _ZN6Kasten15DocumentManager16staticMetaObjectE@Base 4:14.12.0
 _ZN6Kasten15DocumentManager5addedERK5QListIPNS_16AbstractDocumentEE@Base 4:14.12.0
 _ZN6Kasten15DocumentManager7closingERK5QListIPNS_16AbstractDocumentEE@Base 4:14.12.0
 _ZN6Kasten15DocumentManager8canCloseEPNS_16AbstractDocumentE@Base 4:14.12.0
 _ZN6Kasten15DocumentManager8canCloseERK5QListIPNS_16AbstractDocumentEE@Base 4:14.12.0
 _ZN6Kasten15DocumentManager8closeAllEv@Base 4:14.12.0
 _ZN6Kasten15DocumentManagerC1Ev@Base 4:14.12.0
 _ZN6Kasten15DocumentManagerC2Ev@Base 4:14.12.0
 _ZN6Kasten15DocumentManagerD0Ev@Base 4:14.12.0
 _ZN6Kasten15DocumentManagerD1Ev@Base 4:14.12.0
 _ZN6Kasten15DocumentManagerD2Ev@Base 4:14.12.0
 _ZN6Kasten16AbstractDocument11qt_metacallEN11QMetaObject4CallEiPPv@Base 4:14.12.0
 _ZN6Kasten16AbstractDocument11qt_metacastEPKc@Base 4:14.12.0
 _ZN6Kasten16AbstractDocument15setSynchronizerEPNS_25AbstractModelSynchronizerE@Base 4:14.12.0
 _ZN6Kasten16AbstractDocument16staticMetaObjectE@Base 4:14.12.0
 _ZN6Kasten16AbstractDocument19contentFlagsChangedE6QFlagsINS_11ContentFlagEE@Base 4:14.12.0
 _ZN6Kasten16AbstractDocument19synchronizerChangedEPNS_25AbstractModelSynchronizerE@Base 4:14.12.0
 _ZN6Kasten16AbstractDocument5setIdERK7QString@Base 4:14.12.0
 _ZN6Kasten16AbstractDocumentC1Ev@Base 4:14.12.0
 _ZN6Kasten16AbstractDocumentC2Ev@Base 4:14.12.0
 _ZN6Kasten16AbstractDocumentD0Ev@Base 4:14.12.0
 _ZN6Kasten16AbstractDocumentD1Ev@Base 4:14.12.0
 _ZN6Kasten16AbstractDocumentD2Ev@Base 4:14.12.0
 _ZN6Kasten17AbstractExportJob11qt_metacallEN11QMetaObject4CallEiPPv@Base 4:14.12.0
 _ZN6Kasten17AbstractExportJob11qt_metacastEPKc@Base 4:14.12.0
 _ZN6Kasten17AbstractExportJob11setDocumentEPNS_16AbstractDocumentE@Base 4:14.12.0
 _ZN6Kasten17AbstractExportJob14documentLoadedEPNS_16AbstractDocumentE@Base 4:14.12.0
 _ZN6Kasten17AbstractExportJob16staticMetaObjectE@Base 4:14.12.0
 _ZN6Kasten17AbstractExportJobC1EPNS_24AbstractExportJobPrivateE@Base 4:14.12.0
 _ZN6Kasten17AbstractExportJobC1Ev@Base 4:14.12.0
 _ZN6Kasten17AbstractExportJobC2EPNS_24AbstractExportJobPrivateE@Base 4:14.12.0
 _ZN6Kasten17AbstractExportJobC2Ev@Base 4:14.12.0
 _ZN6Kasten17AbstractExportJobD0Ev@Base 4:14.12.0
 _ZN6Kasten17AbstractExportJobD1Ev@Base 4:14.12.0
 _ZN6Kasten17AbstractExportJobD2Ev@Base 4:14.12.0
 _ZN6Kasten17ModelCodecManager11qt_metacallEN11QMetaObject4CallEiPPv@Base 4:14.12.0
 _ZN6Kasten17ModelCodecManager11qt_metacastEPKc@Base 4:14.12.0
 _ZN6Kasten17ModelCodecManager11setDecodersERK5QListIPNS_26AbstractModelStreamDecoderEE@Base 4:14.12.0
 _ZN6Kasten17ModelCodecManager11setEncodersERK5QListIPNS_26AbstractModelStreamEncoderEE@Base 4:14.12.0
 _ZN6Kasten17ModelCodecManager13setGeneratorsERK5QListIPNS_26AbstractModelDataGeneratorEE@Base 4:14.12.0
 _ZN6Kasten17ModelCodecManager14encodeToStreamEPNS_26AbstractModelStreamEncoderEPNS_13AbstractModelEPKNS_22AbstractModelSelectionE@Base 4:14.12.0
 _ZN6Kasten17ModelCodecManager14exportDocumentEPNS_21AbstractModelExporterEPNS_13AbstractModelEPKNS_22AbstractModelSelectionE@Base 4:14.12.0
 _ZN6Kasten17ModelCodecManager16staticMetaObjectE@Base 4:14.12.0
 _ZN6Kasten17ModelCodecManager18setOverwriteDialogEPNS_23AbstractOverwriteDialogE@Base 4:14.12.0
 _ZN6Kasten17ModelCodecManagerC1EPNS_15DocumentManagerE@Base 4:14.12.0
 _ZN6Kasten17ModelCodecManagerC2EPNS_15DocumentManagerE@Base 4:14.12.0
 _ZN6Kasten17ModelCodecManagerD0Ev@Base 4:14.12.0
 _ZN6Kasten17ModelCodecManagerD1Ev@Base 4:14.12.0
 _ZN6Kasten17ModelCodecManagerD2Ev@Base 4:14.12.0
 _ZN6Kasten18AbstractConnectJob11qt_metacallEN11QMetaObject4CallEiPPv@Base 4:14.12.0
 _ZN6Kasten18AbstractConnectJob11qt_metacastEPKc@Base 4:14.12.0
 _ZN6Kasten18AbstractConnectJob16staticMetaObjectE@Base 4:14.12.0
 _ZN6Kasten18AbstractConnectJobC1EPNS_25AbstractConnectJobPrivateE@Base 4:14.12.0
 _ZN6Kasten18AbstractConnectJobC1Ev@Base 4:14.12.0
 _ZN6Kasten18AbstractConnectJobC2EPNS_25AbstractConnectJobPrivateE@Base 4:14.12.0
 _ZN6Kasten18AbstractConnectJobC2Ev@Base 4:14.12.0
 _ZN6Kasten18AbstractConnectJobD0Ev@Base 4:14.12.0
 _ZN6Kasten18AbstractConnectJobD1Ev@Base 4:14.12.0
 _ZN6Kasten18AbstractConnectJobD2Ev@Base 4:14.12.0
 _ZN6Kasten19DocumentSyncManager11qt_metacallEN11QMetaObject4CallEiPPv@Base 4:14.12.0
 _ZN6Kasten19DocumentSyncManager11qt_metacastEPKc@Base 4:14.12.0
 _ZN6Kasten19DocumentSyncManager15setSynchronizerEPNS_16AbstractDocumentE@Base 4:14.12.0
 _ZN6Kasten19DocumentSyncManager16onDocumentLoadedEPNS_16AbstractDocumentE@Base 4:14.12.0
 _ZN6Kasten19DocumentSyncManager16onDocumentsAddedERK5QListIPNS_16AbstractDocumentEE@Base 4:14.12.0
 _ZN6Kasten19DocumentSyncManager16staticMetaObjectE@Base 4:14.12.0
 _ZN6Kasten19DocumentSyncManager18onDocumentsClosingERK5QListIPNS_16AbstractDocumentEE@Base 4:14.12.0
 _ZN6Kasten19DocumentSyncManager18setOverwriteDialogEPNS_23AbstractOverwriteDialogE@Base 4:14.12.0
 _ZN6Kasten19DocumentSyncManager20setSaveDiscardDialogEPNS_25AbstractSaveDiscardDialogE@Base 4:14.12.0
 _ZN6Kasten19DocumentSyncManager30setDocumentSynchronizerFactoryEPNS_32AbstractModelSynchronizerFactoryE@Base 4:14.12.0
 _ZN6Kasten19DocumentSyncManager4loadERK4QUrl@Base 4:14.12.0
 _ZN6Kasten19DocumentSyncManager4saveEPNS_16AbstractDocumentE@Base 4:14.12.0
 _ZN6Kasten19DocumentSyncManager6reloadEPNS_16AbstractDocumentE@Base 4:14.12.0
 _ZN6Kasten19DocumentSyncManager7urlUsedERK4QUrl@Base 4:14.12.0
 _ZN6Kasten19DocumentSyncManager8canCloseEPNS_16AbstractDocumentE@Base 4:14.12.0
 _ZN6Kasten19DocumentSyncManagerC1EPNS_15DocumentManagerE@Base 4:14.12.0
 _ZN6Kasten19DocumentSyncManagerC2EPNS_15DocumentManagerE@Base 4:14.12.0
 _ZN6Kasten19DocumentSyncManagerD0Ev@Base 4:14.12.0
 _ZN6Kasten19DocumentSyncManagerD1Ev@Base 4:14.12.0
 _ZN6Kasten19DocumentSyncManagerD2Ev@Base 4:14.12.0
 _ZN6Kasten19DocumentVersionDataC1EiRK7QString@Base 4:14.12.0
 _ZN6Kasten19DocumentVersionDataC2EiRK7QString@Base 4:14.12.0
 _ZN6Kasten21AbstractModelExporter11qt_metacallEN11QMetaObject4CallEiPPv@Base 4:14.12.0
 _ZN6Kasten21AbstractModelExporter11qt_metacastEPKc@Base 4:14.12.0
 _ZN6Kasten21AbstractModelExporter16staticMetaObjectE@Base 4:14.12.0
 _ZN6Kasten21AbstractModelExporterC1EPNS_28AbstractModelExporterPrivateE@Base 4:14.12.0
 _ZN6Kasten21AbstractModelExporterC1ERK7QStringS3_@Base 4:14.12.0
 _ZN6Kasten21AbstractModelExporterC2EPNS_28AbstractModelExporterPrivateE@Base 4:14.12.0
 _ZN6Kasten21AbstractModelExporterC2ERK7QStringS3_@Base 4:14.12.0
 _ZN6Kasten21AbstractModelExporterD0Ev@Base 4:14.12.0
 _ZN6Kasten21AbstractModelExporterD1Ev@Base 4:14.12.0
 _ZN6Kasten21AbstractModelExporterD2Ev@Base 4:14.12.0
 _ZN6Kasten21DocumentCreateManager11qt_metacallEN11QMetaObject4CallEiPPv@Base 4:14.12.0
 _ZN6Kasten21DocumentCreateManager11qt_metacastEPKc@Base 4:14.12.0
 _ZN6Kasten21DocumentCreateManager16staticMetaObjectE@Base 4:14.12.0
 _ZN6Kasten21DocumentCreateManager17createNewFromDataEPK9QMimeDatab@Base 4:14.12.0
 _ZN6Kasten21DocumentCreateManager18setDocumentFactoryEPNS_23AbstractDocumentFactoryE@Base 4:14.12.0
 _ZN6Kasten21DocumentCreateManager9createNewEv@Base 4:14.12.0
 _ZN6Kasten21DocumentCreateManagerC1EPNS_15DocumentManagerE@Base 4:14.12.0
 _ZN6Kasten21DocumentCreateManagerC2EPNS_15DocumentManagerE@Base 4:14.12.0
 _ZN6Kasten21DocumentCreateManagerD0Ev@Base 4:14.12.0
 _ZN6Kasten21DocumentCreateManagerD1Ev@Base 4:14.12.0
 _ZN6Kasten21DocumentCreateManagerD2Ev@Base 4:14.12.0
 _ZN6Kasten22AbstractModelSelectionC1Ev@Base 4:14.12.0
 _ZN6Kasten22AbstractModelSelectionC2Ev@Base 4:14.12.0
 _ZN6Kasten22AbstractModelSelectionD0Ev@Base 4:14.12.0
 _ZN6Kasten22AbstractModelSelectionD1Ev@Base 4:14.12.0
 _ZN6Kasten22AbstractModelSelectionD2Ev@Base 4:14.12.0
 _ZN6Kasten23AbstractDocumentFactory11qt_metacallEN11QMetaObject4CallEiPPv@Base 4:14.12.0
 _ZN6Kasten23AbstractDocumentFactory11qt_metacastEPKc@Base 4:14.12.0
 _ZN6Kasten23AbstractDocumentFactory14createFromDataEPK9QMimeDatab@Base 4:14.12.0
 _ZN6Kasten23AbstractDocumentFactory16staticMetaObjectE@Base 4:14.12.0
 _ZN6Kasten23AbstractDocumentFactory17canCreateFromDataEPK9QMimeData@Base 4:14.12.0
 _ZN6Kasten23AbstractDocumentFactoryD0Ev@Base 4:14.12.0
 _ZN6Kasten23AbstractDocumentFactoryD1Ev@Base 4:14.12.0
 _ZN6Kasten23AbstractDocumentFactoryD2Ev@Base 4:14.12.0
 _ZN6Kasten23AbstractSyncToRemoteJob11qt_metacallEN11QMetaObject4CallEiPPv@Base 4:14.12.0
 _ZN6Kasten23AbstractSyncToRemoteJob11qt_metacastEPKc@Base 4:14.12.0
 _ZN6Kasten23AbstractSyncToRemoteJob16staticMetaObjectE@Base 4:14.12.0
 _ZN6Kasten23AbstractSyncToRemoteJobC1EPNS_30AbstractSyncToRemoteJobPrivateE@Base 4:14.12.0
 _ZN6Kasten23AbstractSyncToRemoteJobC1Ev@Base 4:14.12.0
 _ZN6Kasten23AbstractSyncToRemoteJobC2EPNS_30AbstractSyncToRemoteJobPrivateE@Base 4:14.12.0
 _ZN6Kasten23AbstractSyncToRemoteJobC2Ev@Base 4:14.12.0
 _ZN6Kasten23AbstractSyncToRemoteJobD0Ev@Base 4:14.12.0
 _ZN6Kasten23AbstractSyncToRemoteJobD1Ev@Base 4:14.12.0
 _ZN6Kasten23AbstractSyncToRemoteJobD2Ev@Base 4:14.12.0
 _ZN6Kasten23ModelDataGenerateThread11qt_metacallEN11QMetaObject4CallEiPPv@Base 4:14.12.0
 _ZN6Kasten23ModelDataGenerateThread11qt_metacastEPKc@Base 4:14.12.0
 _ZN6Kasten23ModelDataGenerateThread16staticMetaObjectE@Base 4:14.12.0
 _ZN6Kasten23ModelDataGenerateThread3runEv@Base 4:14.12.0
 _ZN6Kasten23ModelDataGenerateThread9generatedEP9QMimeData@Base 4:14.12.0
 _ZN6Kasten23ModelDataGenerateThreadD0Ev@Base 4:14.12.0
 _ZN6Kasten23ModelDataGenerateThreadD1Ev@Base 4:14.12.0
 _ZN6Kasten23ModelDataGenerateThreadD2Ev@Base 4:14.12.0
 _ZN6Kasten23ModelStreamEncodeThread11qt_metacallEN11QMetaObject4CallEiPPv@Base 4:14.12.0
 _ZN6Kasten23ModelStreamEncodeThread11qt_metacastEPKc@Base 4:14.12.0
 _ZN6Kasten23ModelStreamEncodeThread13modelExportedEb@Base 4:14.12.0
 _ZN6Kasten23ModelStreamEncodeThread16staticMetaObjectE@Base 4:14.12.0
 _ZN6Kasten23ModelStreamEncodeThread3runEv@Base 4:14.12.0
 _ZN6Kasten23ModelStreamEncodeThreadD0Ev@Base 4:14.12.0
 _ZN6Kasten23ModelStreamEncodeThreadD1Ev@Base 4:14.12.0
 _ZN6Kasten23ModelStreamEncodeThreadD2Ev@Base 4:14.12.0
 _ZN6Kasten25AbstractFileSystemLoadJob11qt_metacallEN11QMetaObject4CallEiPPv@Base 4:14.12.0
 _ZN6Kasten25AbstractFileSystemLoadJob11qt_metacastEPKc@Base 4:14.12.0
 _ZN6Kasten25AbstractFileSystemLoadJob11setDocumentEPNS_16AbstractDocumentE@Base 4:14.12.0
 _ZN6Kasten25AbstractFileSystemLoadJob16staticMetaObjectE@Base 4:14.12.0
 _ZN6Kasten25AbstractFileSystemLoadJob5startEv@Base 4:14.12.0
 _ZN6Kasten25AbstractFileSystemLoadJobC1EPNS_35AbstractModelFileSystemSynchronizerERK4QUrl@Base 4:14.12.0
 _ZN6Kasten25AbstractFileSystemLoadJobC2EPNS_35AbstractModelFileSystemSynchronizerERK4QUrl@Base 4:14.12.0
 _ZN6Kasten25AbstractFileSystemLoadJobD0Ev@Base 4:14.12.0
 _ZN6Kasten25AbstractFileSystemLoadJobD1Ev@Base 4:14.12.0
 _ZN6Kasten25AbstractFileSystemLoadJobD2Ev@Base 4:14.12.0
 _ZN6Kasten25AbstractModelSynchronizer10urlChangedERK4QUrl@Base 4:14.12.0
 _ZN6Kasten25AbstractModelSynchronizer11qt_metacallEN11QMetaObject4CallEiPPv@Base 4:14.12.0
 _ZN6Kasten25AbstractModelSynchronizer11qt_metacastEPKc@Base 4:14.12.0
 _ZN6Kasten25AbstractModelSynchronizer16staticMetaObjectE@Base 4:14.12.0
 _ZN6Kasten25AbstractModelSynchronizer21localSyncStateChangedENS_14LocalSyncStateE@Base 4:14.12.0
 _ZN6Kasten25AbstractModelSynchronizer22remoteSyncStateChangedENS_15RemoteSyncStateE@Base 4:14.12.0
 _ZN6Kasten25AbstractModelSynchronizer6setUrlERK4QUrl@Base 4:14.12.0
 _ZN6Kasten25AbstractModelSynchronizerC1EPNS_32AbstractModelSynchronizerPrivateE@Base 4:14.12.0
 _ZN6Kasten25AbstractModelSynchronizerC1Ev@Base 4:14.12.0
 _ZN6Kasten25AbstractModelSynchronizerC2EPNS_32AbstractModelSynchronizerPrivateE@Base 4:14.12.0
 _ZN6Kasten25AbstractModelSynchronizerC2Ev@Base 4:14.12.0
 _ZN6Kasten25AbstractModelSynchronizerD0Ev@Base 4:14.12.0
 _ZN6Kasten25AbstractModelSynchronizerD1Ev@Base 4:14.12.0
 _ZN6Kasten25AbstractModelSynchronizerD2Ev@Base 4:14.12.0
 _ZN6Kasten25AbstractSyncFromRemoteJob11qt_metacallEN11QMetaObject4CallEiPPv@Base 4:14.12.0
 _ZN6Kasten25AbstractSyncFromRemoteJob11qt_metacastEPKc@Base 4:14.12.0
 _ZN6Kasten25AbstractSyncFromRemoteJob16staticMetaObjectE@Base 4:14.12.0
 _ZN6Kasten25AbstractSyncFromRemoteJobC1EPNS_32AbstractSyncFromRemoteJobPrivateE@Base 4:14.12.0
 _ZN6Kasten25AbstractSyncFromRemoteJobC1Ev@Base 4:14.12.0
 _ZN6Kasten25AbstractSyncFromRemoteJobC2EPNS_32AbstractSyncFromRemoteJobPrivateE@Base 4:14.12.0
 _ZN6Kasten25AbstractSyncFromRemoteJobC2Ev@Base 4:14.12.0
 _ZN6Kasten25AbstractSyncFromRemoteJobD0Ev@Base 4:14.12.0
 _ZN6Kasten25AbstractSyncFromRemoteJobD1Ev@Base 4:14.12.0
 _ZN6Kasten25AbstractSyncFromRemoteJobD2Ev@Base 4:14.12.0
 _ZN6Kasten25AbstractSyncWithRemoteJob11qt_metacallEN11QMetaObject4CallEiPPv@Base 4:14.12.0
 _ZN6Kasten25AbstractSyncWithRemoteJob11qt_metacastEPKc@Base 4:14.12.0
 _ZN6Kasten25AbstractSyncWithRemoteJob16staticMetaObjectE@Base 4:14.12.0
 _ZN6Kasten25AbstractSyncWithRemoteJobC1EPNS_32AbstractSyncWithRemoteJobPrivateE@Base 4:14.12.0
 _ZN6Kasten25AbstractSyncWithRemoteJobC1Ev@Base 4:14.12.0
 _ZN6Kasten25AbstractSyncWithRemoteJobC2EPNS_32AbstractSyncWithRemoteJobPrivateE@Base 4:14.12.0
 _ZN6Kasten25AbstractSyncWithRemoteJobC2Ev@Base 4:14.12.0
 _ZN6Kasten25AbstractSyncWithRemoteJobD0Ev@Base 4:14.12.0
 _ZN6Kasten25AbstractSyncWithRemoteJobD1Ev@Base 4:14.12.0
 _ZN6Kasten25AbstractSyncWithRemoteJobD2Ev@Base 4:14.12.0
 _ZN6Kasten26AbstractModelDataGenerator11qt_metacallEN11QMetaObject4CallEiPPv@Base 4:14.12.0
 _ZN6Kasten26AbstractModelDataGenerator11qt_metacastEPKc@Base 4:14.12.0
 _ZN6Kasten26AbstractModelDataGenerator16staticMetaObjectE@Base 4:14.12.0
 _ZN6Kasten26AbstractModelDataGeneratorC1EPNS_33AbstractModelDataGeneratorPrivateE@Base 4:14.12.0
 _ZN6Kasten26AbstractModelDataGeneratorC1ERK7QStringS3_NS0_5FlagsE@Base 4:14.12.0
 _ZN6Kasten26AbstractModelDataGeneratorC2EPNS_33AbstractModelDataGeneratorPrivateE@Base 4:14.12.0
 _ZN6Kasten26AbstractModelDataGeneratorC2ERK7QStringS3_NS0_5FlagsE@Base 4:14.12.0
 _ZN6Kasten26AbstractModelDataGeneratorD0Ev@Base 4:14.12.0
 _ZN6Kasten26AbstractModelDataGeneratorD1Ev@Base 4:14.12.0
 _ZN6Kasten26AbstractModelDataGeneratorD2Ev@Base 4:14.12.0
 _ZN6Kasten26AbstractModelStreamEncoder11qt_metacallEN11QMetaObject4CallEiPPv@Base 4:14.12.0
 _ZN6Kasten26AbstractModelStreamEncoder11qt_metacastEPKc@Base 4:14.12.0
 _ZN6Kasten26AbstractModelStreamEncoder16staticMetaObjectE@Base 4:14.12.0
 _ZN6Kasten26AbstractModelStreamEncoderC1EPNS_33AbstractModelStreamEncoderPrivateE@Base 4:14.12.0
 _ZN6Kasten26AbstractModelStreamEncoderC1ERK7QStringS3_S3_@Base 4:14.12.0
 _ZN6Kasten26AbstractModelStreamEncoderC2EPNS_33AbstractModelStreamEncoderPrivateE@Base 4:14.12.0
 _ZN6Kasten26AbstractModelStreamEncoderC2ERK7QStringS3_S3_@Base 4:14.12.0
 _ZN6Kasten26AbstractModelStreamEncoderD0Ev@Base 4:14.12.0
 _ZN6Kasten26AbstractModelStreamEncoderD1Ev@Base 4:14.12.0
 _ZN6Kasten26AbstractModelStreamEncoderD2Ev@Base 4:14.12.0
 _ZN6Kasten27AbstractFileSystemExportJob11qt_metacallEN11QMetaObject4CallEiPPv@Base 4:14.12.0
 _ZN6Kasten27AbstractFileSystemExportJob11qt_metacastEPKc@Base 4:14.12.0
 _ZN6Kasten27AbstractFileSystemExportJob14completeExportEb@Base 4:14.12.0
 _ZN6Kasten27AbstractFileSystemExportJob16staticMetaObjectE@Base 4:14.12.0
 _ZN6Kasten27AbstractFileSystemExportJob5startEv@Base 4:14.12.0
 _ZN6Kasten27AbstractFileSystemExportJobC1EPNS_13AbstractModelEPKNS_22AbstractModelSelectionERK4QUrl@Base 4:14.12.0
 _ZN6Kasten27AbstractFileSystemExportJobC1EPNS_34AbstractFileSystemExportJobPrivateE@Base 4:14.12.0
 _ZN6Kasten27AbstractFileSystemExportJobC2EPNS_13AbstractModelEPKNS_22AbstractModelSelectionERK4QUrl@Base 4:14.12.0
 _ZN6Kasten27AbstractFileSystemExportJobC2EPNS_34AbstractFileSystemExportJobPrivateE@Base 4:14.12.0
 _ZN6Kasten27AbstractFileSystemExportJobD0Ev@Base 4:14.12.0
 _ZN6Kasten27AbstractFileSystemExportJobD1Ev@Base 4:14.12.0
 _ZN6Kasten27AbstractFileSystemExportJobD2Ev@Base 4:14.12.0
 _ZN6Kasten28AbstractFileSystemConnectJob11qt_metacallEN11QMetaObject4CallEiPPv@Base 4:14.12.0
 _ZN6Kasten28AbstractFileSystemConnectJob11qt_metacastEPKc@Base 4:14.12.0
 _ZN6Kasten28AbstractFileSystemConnectJob16staticMetaObjectE@Base 4:14.12.0
 _ZN6Kasten28AbstractFileSystemConnectJob5startEv@Base 4:14.12.0
 _ZN6Kasten28AbstractFileSystemConnectJob8completeEb@Base 4:14.12.0
 _ZN6Kasten28AbstractFileSystemConnectJobC1EPNS_35AbstractModelFileSystemSynchronizerEPNS_16AbstractDocumentERK4QUrlNS_25AbstractModelSynchronizer13ConnectOptionE@Base 4:14.12.0
 _ZN6Kasten28AbstractFileSystemConnectJobC2EPNS_35AbstractModelFileSystemSynchronizerEPNS_16AbstractDocumentERK4QUrlNS_25AbstractModelSynchronizer13ConnectOptionE@Base 4:14.12.0
 _ZN6Kasten28AbstractFileSystemConnectJobD0Ev@Base 4:14.12.0
 _ZN6Kasten28AbstractFileSystemConnectJobD1Ev@Base 4:14.12.0
 _ZN6Kasten28AbstractFileSystemConnectJobD2Ev@Base 4:14.12.0
 _ZN6Kasten30ModelEncoderFileSystemExporter11qt_metacallEN11QMetaObject4CallEiPPv@Base 4:14.12.0
 _ZN6Kasten30ModelEncoderFileSystemExporter11qt_metacastEPKc@Base 4:14.12.0
 _ZN6Kasten30ModelEncoderFileSystemExporter11startExportEPNS_13AbstractModelEPKNS_22AbstractModelSelectionERK4QUrl@Base 4:14.12.0
 _ZN6Kasten30ModelEncoderFileSystemExporter16staticMetaObjectE@Base 4:14.12.0
 _ZN6Kasten30ModelEncoderFileSystemExporterC1EPNS_26AbstractModelStreamEncoderE@Base 4:14.12.0
 _ZN6Kasten30ModelEncoderFileSystemExporterC2EPNS_26AbstractModelStreamEncoderE@Base 4:14.12.0
 _ZN6Kasten30ModelEncoderFileSystemExporterD0Ev@Base 4:14.12.0
 _ZN6Kasten30ModelEncoderFileSystemExporterD1Ev@Base 4:14.12.0
 _ZN6Kasten30ModelEncoderFileSystemExporterD2Ev@Base 4:14.12.0
 _ZN6Kasten31ModelEncoderFileSystemExportJob11qt_metacallEN11QMetaObject4CallEiPPv@Base 4:14.12.0
 _ZN6Kasten31ModelEncoderFileSystemExportJob11qt_metacastEPKc@Base 4:14.12.0
 _ZN6Kasten31ModelEncoderFileSystemExportJob16staticMetaObjectE@Base 4:14.12.0
 _ZN6Kasten31ModelEncoderFileSystemExportJob17startExportToFileEv@Base 4:14.12.0
 _ZN6Kasten31ModelEncoderFileSystemExportJobC1EPNS_13AbstractModelEPKNS_22AbstractModelSelectionERK4QUrlPNS_26AbstractModelStreamEncoderE@Base 4:14.12.0
 _ZN6Kasten31ModelEncoderFileSystemExportJobC2EPNS_13AbstractModelEPKNS_22AbstractModelSelectionERK4QUrlPNS_26AbstractModelStreamEncoderE@Base 4:14.12.0
 _ZN6Kasten31ModelEncoderFileSystemExportJobD0Ev@Base 4:14.12.0
 _ZN6Kasten31ModelEncoderFileSystemExportJobD1Ev@Base 4:14.12.0
 _ZN6Kasten31ModelEncoderFileSystemExportJobD2Ev@Base 4:14.12.0
 _ZN6Kasten32AbstractModelSynchronizerFactory11qt_metacallEN11QMetaObject4CallEiPPv@Base 4:14.12.0
 _ZN6Kasten32AbstractModelSynchronizerFactory11qt_metacastEPKc@Base 4:14.12.0
 _ZN6Kasten32AbstractModelSynchronizerFactory16staticMetaObjectE@Base 4:14.12.0
 _ZN6Kasten32AbstractModelSynchronizerFactoryD0Ev@Base 4:14.12.0
 _ZN6Kasten32AbstractModelSynchronizerFactoryD1Ev@Base 4:14.12.0
 _ZN6Kasten32AbstractModelSynchronizerFactoryD2Ev@Base 4:14.12.0
 _ZN6Kasten33AbstractFileSystemSyncToRemoteJob11qt_metacallEN11QMetaObject4CallEiPPv@Base 4:14.12.0
 _ZN6Kasten33AbstractFileSystemSyncToRemoteJob11qt_metacastEPKc@Base 4:14.12.0
 _ZN6Kasten33AbstractFileSystemSyncToRemoteJob13completeWriteEb@Base 4:14.12.0
 _ZN6Kasten33AbstractFileSystemSyncToRemoteJob16staticMetaObjectE@Base 4:14.12.0
 _ZN6Kasten33AbstractFileSystemSyncToRemoteJob5startEv@Base 4:14.12.0
 _ZN6Kasten33AbstractFileSystemSyncToRemoteJobC1EPNS_35AbstractModelFileSystemSynchronizerE@Base 4:14.12.0
 _ZN6Kasten33AbstractFileSystemSyncToRemoteJobC2EPNS_35AbstractModelFileSystemSynchronizerE@Base 4:14.12.0
 _ZN6Kasten33AbstractFileSystemSyncToRemoteJobD0Ev@Base 4:14.12.0
 _ZN6Kasten33AbstractFileSystemSyncToRemoteJobD1Ev@Base 4:14.12.0
 _ZN6Kasten33AbstractFileSystemSyncToRemoteJobD2Ev@Base 4:14.12.0
 _ZN6Kasten35AbstractFileSystemSyncFromRemoteJob11qt_metacallEN11QMetaObject4CallEiPPv@Base 4:14.12.0
 _ZN6Kasten35AbstractFileSystemSyncFromRemoteJob11qt_metacastEPKc@Base 4:14.12.0
 _ZN6Kasten35AbstractFileSystemSyncFromRemoteJob12completeReadEb@Base 4:14.12.0
 _ZN6Kasten35AbstractFileSystemSyncFromRemoteJob16staticMetaObjectE@Base 4:14.12.0
 _ZN6Kasten35AbstractFileSystemSyncFromRemoteJob5startEv@Base 4:14.12.0
 _ZN6Kasten35AbstractFileSystemSyncFromRemoteJobC1EPNS_35AbstractModelFileSystemSynchronizerE@Base 4:14.12.0
 _ZN6Kasten35AbstractFileSystemSyncFromRemoteJobC2EPNS_35AbstractModelFileSystemSynchronizerE@Base 4:14.12.0
 _ZN6Kasten35AbstractFileSystemSyncFromRemoteJobD0Ev@Base 4:14.12.0
 _ZN6Kasten35AbstractFileSystemSyncFromRemoteJobD1Ev@Base 4:14.12.0
 _ZN6Kasten35AbstractFileSystemSyncFromRemoteJobD2Ev@Base 4:14.12.0
 _ZN6Kasten35AbstractFileSystemSyncWithRemoteJob11qt_metacallEN11QMetaObject4CallEiPPv@Base 4:14.12.0
 _ZN6Kasten35AbstractFileSystemSyncWithRemoteJob11qt_metacastEPKc@Base 4:14.12.0
 _ZN6Kasten35AbstractFileSystemSyncWithRemoteJob12completeSyncEb@Base 4:14.12.0
 _ZN6Kasten35AbstractFileSystemSyncWithRemoteJob16staticMetaObjectE@Base 4:14.12.0
 _ZN6Kasten35AbstractFileSystemSyncWithRemoteJob5startEv@Base 4:14.12.0
 _ZN6Kasten35AbstractFileSystemSyncWithRemoteJobC1EPNS_35AbstractModelFileSystemSynchronizerERK4QUrlNS_25AbstractModelSynchronizer13ConnectOptionE@Base 4:14.12.0
 _ZN6Kasten35AbstractFileSystemSyncWithRemoteJobC2EPNS_35AbstractModelFileSystemSynchronizerERK4QUrlNS_25AbstractModelSynchronizer13ConnectOptionE@Base 4:14.12.0
 _ZN6Kasten35AbstractFileSystemSyncWithRemoteJobD0Ev@Base 4:14.12.0
 _ZN6Kasten35AbstractFileSystemSyncWithRemoteJobD1Ev@Base 4:14.12.0
 _ZN6Kasten35AbstractFileSystemSyncWithRemoteJobD2Ev@Base 4:14.12.0
 _ZN6Kasten35AbstractModelFileSystemSynchronizer11qt_metacallEN11QMetaObject4CallEiPPv@Base 4:14.12.0
 _ZN6Kasten35AbstractModelFileSystemSynchronizer11qt_metacastEPKc@Base 4:14.12.0
 _ZN6Kasten35AbstractModelFileSystemSynchronizer14setRemoteStateENS_15RemoteSyncStateE@Base 4:14.12.0
 _ZN6Kasten35AbstractModelFileSystemSynchronizer16staticMetaObjectE@Base 4:14.12.0
 _ZN6Kasten35AbstractModelFileSystemSynchronizer16stopFileWatchingEv@Base 4:14.12.0
 _ZN6Kasten35AbstractModelFileSystemSynchronizer17pauseFileWatchingEv@Base 4:14.12.0
 _ZN6Kasten35AbstractModelFileSystemSynchronizer17startFileWatchingEv@Base 4:14.12.0
 _ZN6Kasten35AbstractModelFileSystemSynchronizer19stopNetworkWatchingEv@Base 4:14.12.0
 _ZN6Kasten35AbstractModelFileSystemSynchronizer19unpauseFileWatchingEv@Base 4:14.12.0
 _ZN6Kasten35AbstractModelFileSystemSynchronizer20startNetworkWatchingEv@Base 4:14.12.0
 _ZN6Kasten35AbstractModelFileSystemSynchronizer21setFileDateTimeOnSyncERK9QDateTime@Base 4:14.12.0
 _ZN6Kasten35AbstractModelFileSystemSynchronizerC1EPNS_42AbstractModelFileSystemSynchronizerPrivateE@Base 4:14.12.0
 _ZN6Kasten35AbstractModelFileSystemSynchronizerC1Ev@Base 4:14.12.0
 _ZN6Kasten35AbstractModelFileSystemSynchronizerC2EPNS_42AbstractModelFileSystemSynchronizerPrivateE@Base 4:14.12.0
 _ZN6Kasten35AbstractModelFileSystemSynchronizerC2Ev@Base 4:14.12.0
 _ZN6Kasten35AbstractModelFileSystemSynchronizerD0Ev@Base 4:14.12.0
 _ZN6Kasten35AbstractModelFileSystemSynchronizerD1Ev@Base 4:14.12.0
 _ZN6Kasten35AbstractModelFileSystemSynchronizerD2Ev@Base 4:14.12.0
 _ZN6Kasten6Person8setEgoIdEi@Base 4:14.12.0
 _ZN6Kasten6Person9createEgoEv@Base 4:14.12.0
 _ZN6Kasten6PersonC1ERK7QStringRK5QIcon@Base 4:14.12.0
 _ZN6Kasten6PersonC1ERKS0_@Base 4:14.12.0
 _ZN6Kasten6PersonC1Ev@Base 4:14.12.0
 _ZN6Kasten6PersonC2ERK7QStringRK5QIcon@Base 4:14.12.0
 _ZN6Kasten6PersonC2ERKS0_@Base 4:14.12.0
 _ZN6Kasten6PersonC2Ev@Base 4:14.12.0
 _ZN6Kasten6PersonD1Ev@Base 4:14.12.0
 _ZN6Kasten6PersonD2Ev@Base 4:14.12.0
 _ZN6Kasten6PersonaSERKS0_@Base 4:14.12.0
 _ZNK6Kasten12AbstractTool10metaObjectEv@Base 4:14.12.0
 _ZNK6Kasten13AbstractModel10isReadOnlyEv@Base 4:14.12.0
 _ZNK6Kasten13AbstractModel10metaObjectEv@Base 4:14.12.0
 _ZNK6Kasten13AbstractModel12isModifiableEv@Base 4:14.12.0
 _ZNK6Kasten13AbstractModel9baseModelEv@Base 4:14.12.0
 _ZNK6Kasten15AbstractLoadJob10metaObjectEv@Base 4:14.12.0
 _ZNK6Kasten15AbstractLoadJob8documentEv@Base 4:14.12.0
 _ZNK6Kasten15DocumentManager10metaObjectEv@Base 4:14.12.0
 _ZNK6Kasten15DocumentManager7isEmptyEv@Base 4:14.12.0
 _ZNK6Kasten15DocumentManager9documentsEv@Base 4:14.12.0
 _ZNK6Kasten16AbstractDocument10metaObjectEv@Base 4:14.12.0
 _ZNK6Kasten16AbstractDocument12synchronizerEv@Base 4:14.12.0
 _ZNK6Kasten16AbstractDocument2idEv@Base 4:14.12.0
 _ZNK6Kasten17AbstractExportJob10metaObjectEv@Base 4:14.12.0
 _ZNK6Kasten17AbstractExportJob8documentEv@Base 4:14.12.0
 _ZNK6Kasten17ModelCodecManager10metaObjectEv@Base 4:14.12.0
 _ZNK6Kasten17ModelCodecManager11decoderListEv@Base 4:14.12.0
 _ZNK6Kasten17ModelCodecManager11encoderListEPNS_13AbstractModelEPKNS_22AbstractModelSelectionE@Base 4:14.12.0
 _ZNK6Kasten17ModelCodecManager12exporterListEPNS_13AbstractModelEPKNS_22AbstractModelSelectionE@Base 4:14.12.0
 _ZNK6Kasten17ModelCodecManager13generatorListEv@Base 4:14.12.0
 _ZNK6Kasten18AbstractConnectJob10metaObjectEv@Base 4:14.12.0
 _ZNK6Kasten19DocumentSyncManager10metaObjectEv@Base 4:14.12.0
 _ZNK6Kasten19DocumentSyncManager20supportedRemoteTypesEv@Base 4:14.12.0
 _ZNK6Kasten19DocumentSyncManager23hasSynchronizerForLocalERK7QString@Base 4:14.12.0
 _ZNK6Kasten19DocumentSyncManager5urlOfEPNS_16AbstractDocumentE@Base 4:14.12.0
 _ZNK6Kasten19DocumentVersionData13changeCommentEv@Base 4:14.12.0
 _ZNK6Kasten19DocumentVersionData2idEv@Base 4:14.12.0
 _ZNK6Kasten21AbstractModelExporter10metaObjectEv@Base 4:14.12.0
 _ZNK6Kasten21AbstractModelExporter14remoteMimeTypeEv@Base 4:14.12.0
 _ZNK6Kasten21AbstractModelExporter14remoteTypeNameEv@Base 4:14.12.0
 _ZNK6Kasten21DocumentCreateManager10metaObjectEv@Base 4:14.12.0
 _ZNK6Kasten21DocumentCreateManager20canCreateNewFromDataEPK9QMimeData@Base 4:14.12.0
 _ZNK6Kasten23AbstractDocumentFactory10metaObjectEv@Base 4:14.12.0
 _ZNK6Kasten23AbstractSyncToRemoteJob10metaObjectEv@Base 4:14.12.0
 _ZNK6Kasten23ModelDataGenerateThread10metaObjectEv@Base 4:14.12.0
 _ZNK6Kasten23ModelStreamEncodeThread10metaObjectEv@Base 4:14.12.0
 _ZNK6Kasten25AbstractFileSystemLoadJob10metaObjectEv@Base 4:14.12.0
 _ZNK6Kasten25AbstractFileSystemLoadJob12synchronizerEv@Base 4:14.12.0
 _ZNK6Kasten25AbstractFileSystemLoadJob3urlEv@Base 4:14.12.0
 _ZNK6Kasten25AbstractFileSystemLoadJob4fileEv@Base 4:14.12.0
 _ZNK6Kasten25AbstractModelSynchronizer10dataPulledEi@Base 4:14.12.0
 _ZNK6Kasten25AbstractModelSynchronizer10dataPushedEi@Base 4:14.12.0
 _ZNK6Kasten25AbstractModelSynchronizer10metaObjectEv@Base 4:14.12.0
 _ZNK6Kasten25AbstractModelSynchronizer3urlEv@Base 4:14.12.0
 _ZNK6Kasten25AbstractSyncFromRemoteJob10metaObjectEv@Base 4:14.12.0
 _ZNK6Kasten25AbstractSyncWithRemoteJob10metaObjectEv@Base 4:14.12.0
 _ZNK6Kasten26AbstractModelDataGenerator10metaObjectEv@Base 4:14.12.0
 _ZNK6Kasten26AbstractModelDataGenerator5flagsEv@Base 4:14.12.0
 _ZNK6Kasten26AbstractModelDataGenerator8mimeTypeEv@Base 4:14.12.0
 _ZNK6Kasten26AbstractModelDataGenerator8typeNameEv@Base 4:14.12.0
 _ZNK6Kasten26AbstractModelStreamEncoder10metaObjectEv@Base 4:14.12.0
 _ZNK6Kasten26AbstractModelStreamEncoder14remoteMimeTypeEv@Base 4:14.12.0
 _ZNK6Kasten26AbstractModelStreamEncoder14remoteTypeNameEv@Base 4:14.12.0
 _ZNK6Kasten26AbstractModelStreamEncoder23remoteClipboardMimeTypeEv@Base 4:14.12.0
 _ZNK6Kasten27AbstractFileSystemExportJob10metaObjectEv@Base 4:14.12.0
 _ZNK6Kasten27AbstractFileSystemExportJob4fileEv@Base 4:14.12.0
 _ZNK6Kasten27AbstractFileSystemExportJob5modelEv@Base 4:14.12.0
 _ZNK6Kasten27AbstractFileSystemExportJob9selectionEv@Base 4:14.12.0
 _ZNK6Kasten28AbstractFileSystemConnectJob10metaObjectEv@Base 4:14.12.0
 _ZNK6Kasten28AbstractFileSystemConnectJob12synchronizerEv@Base 4:14.12.0
 _ZNK6Kasten28AbstractFileSystemConnectJob4fileEv@Base 4:14.12.0
 _ZNK6Kasten28AbstractFileSystemConnectJob8documentEv@Base 4:14.12.0
 _ZNK6Kasten30ModelEncoderFileSystemExporter10metaObjectEv@Base 4:14.12.0
 _ZNK6Kasten30ModelEncoderFileSystemExporter13modelTypeNameEPNS_13AbstractModelEPKNS_22AbstractModelSelectionE@Base 4:14.12.0
 _ZNK6Kasten30ModelEncoderFileSystemExporter7encoderEv@Base 4:14.12.0
 _ZNK6Kasten31ModelEncoderFileSystemExportJob10metaObjectEv@Base 4:14.12.0
 _ZNK6Kasten32AbstractModelSynchronizerFactory10metaObjectEv@Base 4:14.12.0
 _ZNK6Kasten33AbstractFileSystemSyncToRemoteJob10metaObjectEv@Base 4:14.12.0
 _ZNK6Kasten33AbstractFileSystemSyncToRemoteJob12synchronizerEv@Base 4:14.12.0
 _ZNK6Kasten33AbstractFileSystemSyncToRemoteJob4fileEv@Base 4:14.12.0
 _ZNK6Kasten35AbstractFileSystemSyncFromRemoteJob10metaObjectEv@Base 4:14.12.0
 _ZNK6Kasten35AbstractFileSystemSyncFromRemoteJob12synchronizerEv@Base 4:14.12.0
 _ZNK6Kasten35AbstractFileSystemSyncFromRemoteJob4fileEv@Base 4:14.12.0
 _ZNK6Kasten35AbstractFileSystemSyncWithRemoteJob10metaObjectEv@Base 4:14.12.0
 _ZNK6Kasten35AbstractFileSystemSyncWithRemoteJob12synchronizerEv@Base 4:14.12.0
 _ZNK6Kasten35AbstractFileSystemSyncWithRemoteJob4fileEv@Base 4:14.12.0
 _ZNK6Kasten35AbstractModelFileSystemSynchronizer10metaObjectEv@Base 4:14.12.0
 _ZNK6Kasten35AbstractModelFileSystemSynchronizer15remoteSyncStateEv@Base 4:14.12.0
 _ZNK6Kasten6Person4nameEv@Base 4:14.12.0
 _ZNK6Kasten6Person8faceIconEv@Base 4:14.12.0
 _ZNK6Kasten6PersoneqERKS0_@Base 4:14.12.0
 _ZTIN6Kasten12AbstractToolE@Base 4:15.04.0
 _ZTIN6Kasten13AbstractModelE@Base 4:15.04.0
 _ZTIN6Kasten15AbstractLoadJobE@Base 4:15.04.0
 _ZTIN6Kasten15DocumentManagerE@Base 4:15.04.0
 _ZTIN6Kasten16AbstractDocumentE@Base 4:15.04.0
 _ZTIN6Kasten17AbstractExportJobE@Base 4:15.04.0
 _ZTIN6Kasten17ModelCodecManagerE@Base 4:15.04.0
 _ZTIN6Kasten18AbstractConnectJobE@Base 4:15.04.0
 _ZTIN6Kasten19DocumentSyncManagerE@Base 4:15.04.0
 _ZTIN6Kasten21AbstractModelExporterE@Base 4:15.04.0
 _ZTIN6Kasten21DocumentCreateManagerE@Base 4:15.04.0
 _ZTIN6Kasten22AbstractModelSelectionE@Base 4:15.04.0
 _ZTIN6Kasten23AbstractDocumentFactoryE@Base 4:15.04.0
 _ZTIN6Kasten23AbstractOverwriteDialogE@Base 4:15.08.0
 _ZTIN6Kasten23AbstractSyncToRemoteJobE@Base 4:15.04.0
 _ZTIN6Kasten23ModelDataGenerateThreadE@Base 4:15.04.0
 _ZTIN6Kasten23ModelStreamEncodeThreadE@Base 4:15.04.0
 _ZTIN6Kasten25AbstractFileSystemLoadJobE@Base 4:15.04.0
 _ZTIN6Kasten25AbstractModelSynchronizerE@Base 4:15.04.0
 _ZTIN6Kasten25AbstractSaveDiscardDialogE@Base 4:15.08.0
 _ZTIN6Kasten25AbstractSyncFromRemoteJobE@Base 4:15.04.0
 _ZTIN6Kasten25AbstractSyncWithRemoteJobE@Base 4:15.04.0
 _ZTIN6Kasten26AbstractModelDataGeneratorE@Base 4:15.04.0
 _ZTIN6Kasten26AbstractModelStreamEncoderE@Base 4:15.04.0
 _ZTIN6Kasten27AbstractFileSystemExportJobE@Base 4:15.04.0
 _ZTIN6Kasten28AbstractFileSystemConnectJobE@Base 4:15.04.0
 _ZTIN6Kasten30ModelEncoderFileSystemExporterE@Base 4:15.04.0
 _ZTIN6Kasten31ModelEncoderFileSystemExportJobE@Base 4:15.04.0
 _ZTIN6Kasten32AbstractModelSynchronizerFactoryE@Base 4:15.04.0
 _ZTIN6Kasten33AbstractFileSystemSyncToRemoteJobE@Base 4:15.04.0
 _ZTIN6Kasten35AbstractFileSystemSyncFromRemoteJobE@Base 4:15.04.0
 _ZTIN6Kasten35AbstractFileSystemSyncWithRemoteJobE@Base 4:15.04.0
 _ZTIN6Kasten35AbstractModelFileSystemSynchronizerE@Base 4:15.04.0
 _ZTSN6Kasten12AbstractToolE@Base 4:15.04.0
 _ZTSN6Kasten13AbstractModelE@Base 4:15.04.0
 _ZTSN6Kasten15AbstractLoadJobE@Base 4:15.04.0
 _ZTSN6Kasten15DocumentManagerE@Base 4:15.04.0
 _ZTSN6Kasten16AbstractDocumentE@Base 4:15.04.0
 _ZTSN6Kasten17AbstractExportJobE@Base 4:15.04.0
 _ZTSN6Kasten17ModelCodecManagerE@Base 4:15.04.0
 _ZTSN6Kasten18AbstractConnectJobE@Base 4:15.04.0
 _ZTSN6Kasten19DocumentSyncManagerE@Base 4:15.04.0
 _ZTSN6Kasten21AbstractModelExporterE@Base 4:15.04.0
 _ZTSN6Kasten21DocumentCreateManagerE@Base 4:15.04.0
 _ZTSN6Kasten22AbstractModelSelectionE@Base 4:15.04.0
 _ZTSN6Kasten23AbstractDocumentFactoryE@Base 4:15.04.0
 _ZTSN6Kasten23AbstractOverwriteDialogE@Base 4:15.08.0
 _ZTSN6Kasten23AbstractSyncToRemoteJobE@Base 4:15.04.0
 _ZTSN6Kasten23ModelDataGenerateThreadE@Base 4:15.04.0
 _ZTSN6Kasten23ModelStreamEncodeThreadE@Base 4:15.04.0
 _ZTSN6Kasten25AbstractFileSystemLoadJobE@Base 4:15.04.0
 _ZTSN6Kasten25AbstractModelSynchronizerE@Base 4:15.04.0
 _ZTSN6Kasten25AbstractSaveDiscardDialogE@Base 4:15.08.0
 _ZTSN6Kasten25AbstractSyncFromRemoteJobE@Base 4:15.04.0
 _ZTSN6Kasten25AbstractSyncWithRemoteJobE@Base 4:15.04.0
 _ZTSN6Kasten26AbstractModelDataGeneratorE@Base 4:15.04.0
 _ZTSN6Kasten26AbstractModelStreamEncoderE@Base 4:15.04.0
 _ZTSN6Kasten27AbstractFileSystemExportJobE@Base 4:15.04.0
 _ZTSN6Kasten28AbstractFileSystemConnectJobE@Base 4:15.04.0
 _ZTSN6Kasten30ModelEncoderFileSystemExporterE@Base 4:15.04.0
 _ZTSN6Kasten31ModelEncoderFileSystemExportJobE@Base 4:15.04.0
 _ZTSN6Kasten32AbstractModelSynchronizerFactoryE@Base 4:15.04.0
 _ZTSN6Kasten33AbstractFileSystemSyncToRemoteJobE@Base 4:15.04.0
 _ZTSN6Kasten35AbstractFileSystemSyncFromRemoteJobE@Base 4:15.04.0
 _ZTSN6Kasten35AbstractFileSystemSyncWithRemoteJobE@Base 4:15.04.0
 _ZTSN6Kasten35AbstractModelFileSystemSynchronizerE@Base 4:15.04.0
 _ZTVN6Kasten12AbstractToolE@Base 4:14.12.0
 _ZTVN6Kasten13AbstractModelE@Base 4:14.12.0
 _ZTVN6Kasten15AbstractLoadJobE@Base 4:14.12.0
 _ZTVN6Kasten15DocumentManagerE@Base 4:14.12.0
 _ZTVN6Kasten16AbstractDocumentE@Base 4:14.12.0
 _ZTVN6Kasten17AbstractExportJobE@Base 4:14.12.0
 _ZTVN6Kasten17ModelCodecManagerE@Base 4:14.12.0
 _ZTVN6Kasten18AbstractConnectJobE@Base 4:14.12.0
 _ZTVN6Kasten19DocumentSyncManagerE@Base 4:14.12.0
 _ZTVN6Kasten21AbstractModelExporterE@Base 4:14.12.0
 _ZTVN6Kasten21DocumentCreateManagerE@Base 4:14.12.0
 _ZTVN6Kasten22AbstractModelSelectionE@Base 4:14.12.0
 _ZTVN6Kasten23AbstractDocumentFactoryE@Base 4:14.12.0
 _ZTVN6Kasten23AbstractOverwriteDialogE@Base 4:15.08.0
 _ZTVN6Kasten23AbstractSyncToRemoteJobE@Base 4:14.12.0
 _ZTVN6Kasten23ModelDataGenerateThreadE@Base 4:14.12.0
 _ZTVN6Kasten23ModelStreamEncodeThreadE@Base 4:14.12.0
 _ZTVN6Kasten25AbstractFileSystemLoadJobE@Base 4:14.12.0
 _ZTVN6Kasten25AbstractModelSynchronizerE@Base 4:14.12.0
 _ZTVN6Kasten25AbstractSaveDiscardDialogE@Base 4:15.08.0
 _ZTVN6Kasten25AbstractSyncFromRemoteJobE@Base 4:14.12.0
 _ZTVN6Kasten25AbstractSyncWithRemoteJobE@Base 4:14.12.0
 _ZTVN6Kasten26AbstractModelDataGeneratorE@Base 4:14.12.0
 _ZTVN6Kasten26AbstractModelStreamEncoderE@Base 4:14.12.0
 _ZTVN6Kasten27AbstractFileSystemExportJobE@Base 4:14.12.0
 _ZTVN6Kasten28AbstractFileSystemConnectJobE@Base 4:14.12.0
 _ZTVN6Kasten30ModelEncoderFileSystemExporterE@Base 4:14.12.0
 _ZTVN6Kasten31ModelEncoderFileSystemExportJobE@Base 4:14.12.0
 _ZTVN6Kasten32AbstractModelSynchronizerFactoryE@Base 4:14.12.0
 _ZTVN6Kasten33AbstractFileSystemSyncToRemoteJobE@Base 4:14.12.0
 _ZTVN6Kasten35AbstractFileSystemSyncFromRemoteJobE@Base 4:14.12.0
 _ZTVN6Kasten35AbstractFileSystemSyncWithRemoteJobE@Base 4:14.12.0
 _ZTVN6Kasten35AbstractModelFileSystemSynchronizerE@Base 4:14.12.0
