libQt5TextToSpeech.so.5 libqt5texttospeech5 #MINVER#
 Qt_5.0@Qt_5.0 5.8.0~alpha
 Qt_5.1@Qt_5.1 5.8.0~alpha
 Qt_5.2@Qt_5.2 5.8.0~alpha
 Qt_5.3@Qt_5.3 5.8.0~alpha
 Qt_5.4@Qt_5.4 5.8.0~alpha
 Qt_5.5@Qt_5.5 5.8.0~alpha
 Qt_5.6@Qt_5.6 5.8.0~alpha
 Qt_5.7@Qt_5.7 5.8.0~alpha
 Qt_5.8@Qt_5.8 5.9.0~rc2
 Qt_5.9@Qt_5.9 5.9.0~rc2
 Qt_5@Qt_5 5.8.0~alpha
 Qt_5_PRIVATE_API@Qt_5_PRIVATE_API 5.8.0~alpha
 _ZN13QTextToSpeech11qt_metacallEN11QMetaObject4CallEiPPv@Qt_5 5.8.0~alpha
 _ZN13QTextToSpeech11qt_metacastEPKc@Qt_5 5.8.0~alpha
 _ZN13QTextToSpeech11rateChangedEd@Qt_5 5.8.0~alpha
 _ZN13QTextToSpeech12pitchChangedEd@Qt_5 5.8.0~alpha
 _ZN13QTextToSpeech12stateChangedENS_5StateE@Qt_5 5.8.0~alpha
 _ZN13QTextToSpeech12voiceChangedERK6QVoice@Qt_5 5.8.0~alpha
 _ZN13QTextToSpeech13localeChangedERK7QLocale@Qt_5 5.8.0~alpha
 _ZN13QTextToSpeech13volumeChangedEi@Qt_5 5.8.0~alpha
 _ZN13QTextToSpeech16availableEnginesEv@Qt_5 5.8.0~alpha
 _ZN13QTextToSpeech16staticMetaObjectE@Qt_5 5.8.0~alpha
 _ZN13QTextToSpeech3sayERK7QString@Qt_5 5.8.0~alpha
 _ZN13QTextToSpeech4stopEv@Qt_5 5.8.0~alpha
 _ZN13QTextToSpeech5pauseEv@Qt_5 5.8.0~alpha
 _ZN13QTextToSpeech6resumeEv@Qt_5 5.8.0~alpha
 _ZN13QTextToSpeech7setRateEd@Qt_5 5.8.0~alpha
 _ZN13QTextToSpeech8setPitchEd@Qt_5 5.8.0~alpha
 _ZN13QTextToSpeech8setVoiceERK6QVoice@Qt_5 5.8.0~alpha
 _ZN13QTextToSpeech9setLocaleERK7QLocale@Qt_5 5.8.0~alpha
 _ZN13QTextToSpeech9setVolumeEd@Qt_5 5.8.0~alpha
 _ZN13QTextToSpeechC1EP7QObject@Qt_5 5.8.0~alpha
 _ZN13QTextToSpeechC1ERK7QStringP7QObject@Qt_5 5.8.0~alpha
 _ZN13QTextToSpeechC2EP7QObject@Qt_5 5.8.0~alpha
 _ZN13QTextToSpeechC2ERK7QStringP7QObject@Qt_5 5.8.0~alpha
 _ZN19QTextToSpeechEngine11createVoiceERK7QStringN6QVoice6GenderENS3_3AgeERK8QVariant@Qt_5 5.8.0~alpha
 _ZN19QTextToSpeechEngine11qt_metacallEN11QMetaObject4CallEiPPv@Qt_5 5.8.0~alpha
 _ZN19QTextToSpeechEngine11qt_metacastEPKc@Qt_5 5.8.0~alpha
 _ZN19QTextToSpeechEngine12stateChangedEN13QTextToSpeech5StateE@Qt_5 5.8.0~alpha
 _ZN19QTextToSpeechEngine16staticMetaObjectE@Qt_5 5.8.0~alpha
 _ZN19QTextToSpeechEngine9voiceDataERK6QVoice@Qt_5 5.8.0~alpha
 _ZN19QTextToSpeechEngineC1EP7QObject@Qt_5 5.8.0~alpha
 _ZN19QTextToSpeechEngineC2EP7QObject@Qt_5 5.8.0~alpha
 _ZN19QTextToSpeechEngineD0Ev@Qt_5 5.8.0~alpha
 _ZN19QTextToSpeechEngineD1Ev@Qt_5 5.8.0~alpha
 _ZN19QTextToSpeechEngineD2Ev@Qt_5 5.8.0~alpha
 _ZN6QVoice10genderNameENS_6GenderE@Qt_5 5.8.0~alpha
 _ZN6QVoice6setAgeENS_3AgeE@Qt_5 5.8.0~alpha
 _ZN6QVoice7ageNameENS_3AgeE@Qt_5 5.8.0~alpha
 _ZN6QVoice7setDataERK8QVariant@Qt_5 5.8.0~alpha
 _ZN6QVoice7setNameERK7QString@Qt_5 5.8.0~alpha
 _ZN6QVoice9setGenderENS_6GenderE@Qt_5 5.8.0~alpha
 _ZN6QVoiceC1ERK7QStringNS_6GenderENS_3AgeERK8QVariant@Qt_5 5.8.0~alpha
 _ZN6QVoiceC1ERKS_@Qt_5 5.8.0~alpha
 _ZN6QVoiceC1Ev@Qt_5 5.8.0~alpha
 _ZN6QVoiceC2ERK7QStringNS_6GenderENS_3AgeERK8QVariant@Qt_5 5.8.0~alpha
 _ZN6QVoiceC2ERKS_@Qt_5 5.8.0~alpha
 _ZN6QVoiceC2Ev@Qt_5 5.8.0~alpha
 _ZN6QVoiceD1Ev@Qt_5 5.8.0~alpha
 _ZN6QVoiceD2Ev@Qt_5 5.8.0~alpha
 _ZN6QVoiceaSERKS_@Qt_5 5.8.0~alpha
 _ZN6QVoiceeqERKS_@Qt_5 5.8.0~alpha
 _ZN6QVoiceneERKS_@Qt_5 5.8.0~alpha
 _ZNK13QTextToSpeech10metaObjectEv@Qt_5 5.8.0~alpha
 _ZNK13QTextToSpeech15availableVoicesEv@Qt_5 5.8.0~alpha
 _ZNK13QTextToSpeech16availableLocalesEv@Qt_5 5.8.0~alpha
 _ZNK13QTextToSpeech4rateEv@Qt_5 5.8.0~alpha
 _ZNK13QTextToSpeech5pitchEv@Qt_5 5.8.0~alpha
 _ZNK13QTextToSpeech5stateEv@Qt_5 5.8.0~alpha
 _ZNK13QTextToSpeech5voiceEv@Qt_5 5.8.0~alpha
 _ZNK13QTextToSpeech6localeEv@Qt_5 5.8.0~alpha
 _ZNK13QTextToSpeech6volumeEv@Qt_5 5.8.0~alpha
 _ZNK19QTextToSpeechEngine10metaObjectEv@Qt_5 5.8.0~alpha
 _ZNK19QTextToSpeechPlugin24createTextToSpeechEngineERK4QMapI7QString8QVariantEP7QObjectPS1_@Qt_5 5.8.0~alpha
 _ZNK6QVoice3ageEv@Qt_5 5.8.0~alpha
 _ZNK6QVoice4dataEv@Qt_5 5.8.0~alpha
 _ZNK6QVoice4nameEv@Qt_5 5.8.0~alpha
 _ZNK6QVoice6genderEv@Qt_5 5.8.0~alpha
 _ZTI13QTextToSpeech@Qt_5 5.8.0~alpha
 _ZTI19QTextToSpeechEngine@Qt_5 5.8.0~alpha
 _ZTI19QTextToSpeechPlugin@Qt_5 5.8.0~alpha
 _ZTS13QTextToSpeech@Qt_5 5.8.0~alpha
 _ZTS19QTextToSpeechEngine@Qt_5 5.8.0~alpha
 _ZTS19QTextToSpeechPlugin@Qt_5 5.8.0~alpha
 _ZTV13QTextToSpeech@Qt_5 5.8.0~alpha
 _ZTV19QTextToSpeechEngine@Qt_5 5.8.0~alpha
 _ZTV19QTextToSpeechPlugin@Qt_5 5.8.0~alpha
