libQt5WebChannel.so.5 libqt5webchannel5 #MINVER#
 Qt_5.0@Qt_5.0 5.6.1
 Qt_5.1@Qt_5.1 5.6.1
 Qt_5.2@Qt_5.2 5.6.1
 Qt_5.3@Qt_5.3 5.6.1
 Qt_5.4@Qt_5.4 5.6.1
 Qt_5.5@Qt_5.5 5.6.1
 Qt_5.6@Qt_5.6 5.6.1
 Qt_5.7@Qt_5.7 5.7.1
 Qt_5.8@Qt_5.8 5.9.0
 Qt_5.9@Qt_5.9 5.9.0
 Qt_5@Qt_5 5.6.1
 Qt_5_PRIVATE_API@Qt_5_PRIVATE_API 5.6.1
 _ZN11QWebChannel11qt_metacallEN11QMetaObject4CallEiPPv@Qt_5 5.6.1
 _ZN11QWebChannel11qt_metacastEPKc@Qt_5 5.6.1
 _ZN11QWebChannel14disconnectFromEP28QWebChannelAbstractTransport@Qt_5 5.6.1
 _ZN11QWebChannel14registerObjectERK7QStringP7QObject@Qt_5 5.6.1
 _ZN11QWebChannel15registerObjectsERK5QHashI7QStringP7QObjectE@Qt_5 5.6.1
 _ZN11QWebChannel15setBlockUpdatesEb@Qt_5 5.6.1
 _ZN11QWebChannel16deregisterObjectEP7QObject@Qt_5 5.6.1
 _ZN11QWebChannel16staticMetaObjectE@Qt_5 5.6.1
 _ZN11QWebChannel19blockUpdatesChangedEb@Qt_5 5.6.1
 _ZN11QWebChannel9connectToEP28QWebChannelAbstractTransport@Qt_5 5.6.1
 _ZN11QWebChannelC1EP7QObject@Qt_5 5.6.1
 _ZN11QWebChannelC1ER18QWebChannelPrivateP7QObject@Qt_5_PRIVATE_API 5.6.1
 _ZN11QWebChannelC2EP7QObject@Qt_5 5.6.1
 _ZN11QWebChannelC2ER18QWebChannelPrivateP7QObject@Qt_5_PRIVATE_API 5.6.1
 _ZN11QWebChannelD0Ev@Qt_5 5.6.1
 _ZN11QWebChannelD1Ev@Qt_5 5.6.1
 _ZN11QWebChannelD2Ev@Qt_5 5.6.1
 _ZN14QQmlWebChannel10transportsEv@Qt_5 5.6.1
 _ZN14QQmlWebChannel11qt_metacallEN11QMetaObject4CallEiPPv@Qt_5 5.6.1
 _ZN14QQmlWebChannel11qt_metacastEPKc@Qt_5 5.6.1
 _ZN14QQmlWebChannel13transports_atEP16QQmlListPropertyI7QObjectEi@Qt_5 5.6.1
 _ZN14QQmlWebChannel14disconnectFromEP7QObject@Qt_5 5.6.1
 _ZN14QQmlWebChannel15registerObjectsERK4QMapI7QString8QVariantE@Qt_5 5.6.1
 _ZN14QQmlWebChannel16staticMetaObjectE@Qt_5 5.6.1
 _ZN14QQmlWebChannel16transports_clearEP16QQmlListPropertyI7QObjectE@Qt_5 5.6.1
 _ZN14QQmlWebChannel16transports_countEP16QQmlListPropertyI7QObjectE@Qt_5 5.6.1
 _ZN14QQmlWebChannel17registeredObjectsEv@Qt_5 5.6.1
 _ZN14QQmlWebChannel17transports_appendEP16QQmlListPropertyI7QObjectEPS1_@Qt_5 5.6.1
 _ZN14QQmlWebChannel20registeredObjects_atEP16QQmlListPropertyI7QObjectEi@Qt_5 5.6.1
 _ZN14QQmlWebChannel21qmlAttachedPropertiesEP7QObject@Qt_5 5.6.1
 _ZN14QQmlWebChannel23registeredObjects_clearEP16QQmlListPropertyI7QObjectE@Qt_5 5.6.1
 _ZN14QQmlWebChannel23registeredObjects_countEP16QQmlListPropertyI7QObjectE@Qt_5 5.6.1
 _ZN14QQmlWebChannel24registeredObjects_appendEP16QQmlListPropertyI7QObjectEPS1_@Qt_5 5.6.1
 _ZN14QQmlWebChannel9connectToEP7QObject@Qt_5 5.6.1
 _ZN14QQmlWebChannelC1EP7QObject@Qt_5 5.6.1
 _ZN14QQmlWebChannelC2EP7QObject@Qt_5 5.6.1
 _ZN14QQmlWebChannelD0Ev@Qt_5 5.6.1
 _ZN14QQmlWebChannelD1Ev@Qt_5 5.6.1
 _ZN14QQmlWebChannelD2Ev@Qt_5 5.6.1
 _ZN18QWebChannelPrivate21_q_transportDestroyedEP7QObject@Qt_5_PRIVATE_API 5.6.1
 _ZN18QWebChannelPrivate4initEv@Qt_5_PRIVATE_API 5.6.1
 _ZN20QMetaObjectPublisher10timerEventEP11QTimerEvent@Qt_5_PRIVATE_API 5.6.1
 _ZN20QMetaObjectPublisher10wrapResultERK8QVariantP28QWebChannelAbstractTransportRK7QString@Qt_5_PRIVATE_API 5.6.1
 _ZN20QMetaObjectPublisher11qt_metacallEN11QMetaObject4CallEiPPv@Qt_5_PRIVATE_API 5.6.1
 _ZN20QMetaObjectPublisher11qt_metacastEPKc@Qt_5_PRIVATE_API 5.6.1
 _ZN20QMetaObjectPublisher11setPropertyEP7QObjectiRK10QJsonValue@Qt_5_PRIVATE_API 5.7.1
 _ZN20QMetaObjectPublisher12invokeMethodEP7QObjectiRK10QJsonArray@Qt_5_PRIVATE_API 5.6.1
 _ZN20QMetaObjectPublisher13handleMessageERK11QJsonObjectP28QWebChannelAbstractTransport@Qt_5_PRIVATE_API 5.6.1
 _ZN20QMetaObjectPublisher13signalEmittedEPK7QObjectiRK5QListI8QVariantE@Qt_5_PRIVATE_API 5.6.1
 _ZN20QMetaObjectPublisher14registerObjectERK7QStringP7QObject@Qt_5_PRIVATE_API 5.6.1
 _ZN20QMetaObjectPublisher15objectDestroyedEPK7QObject@Qt_5_PRIVATE_API 5.6.1
 _ZN20QMetaObjectPublisher15setBlockUpdatesEb@Qt_5_PRIVATE_API 5.6.1
 _ZN20QMetaObjectPublisher15setClientIsIdleEb@Qt_5_PRIVATE_API 5.6.1
 _ZN20QMetaObjectPublisher16initializeClientEP28QWebChannelAbstractTransport@Qt_5_PRIVATE_API 5.6.1
 _ZN20QMetaObjectPublisher16staticMetaObjectE@Qt_5_PRIVATE_API 5.6.1
 _ZN20QMetaObjectPublisher16transportRemovedEP28QWebChannelAbstractTransport@Qt_5_PRIVATE_API 5.7.1
 _ZN20QMetaObjectPublisher18classInfoForObjectEPK7QObjectP28QWebChannelAbstractTransport@Qt_5_PRIVATE_API 5.6.1
 _ZN20QMetaObjectPublisher19blockUpdatesChangedEb@Qt_5_PRIVATE_API 5.6.1
 _ZN20QMetaObjectPublisher25initializePropertyUpdatesEPK7QObjectRK11QJsonObject@Qt_5_PRIVATE_API 5.6.1
 _ZN20QMetaObjectPublisher26sendPendingPropertyUpdatesEv@Qt_5_PRIVATE_API 5.6.1
 _ZN20QMetaObjectPublisher8wrapListERK5QListI8QVariantEP28QWebChannelAbstractTransportRK7QString@Qt_5_PRIVATE_API 5.6.1
 _ZN20QMetaObjectPublisherC1EP11QWebChannel@Qt_5_PRIVATE_API 5.6.1
 _ZN20QMetaObjectPublisherC2EP11QWebChannel@Qt_5_PRIVATE_API 5.6.1
 _ZN20QMetaObjectPublisherD0Ev@Qt_5_PRIVATE_API 5.6.1
 _ZN20QMetaObjectPublisherD1Ev@Qt_5_PRIVATE_API 5.6.1
 _ZN20QMetaObjectPublisherD2Ev@Qt_5_PRIVATE_API 5.6.1
 _ZN22QQmlWebChannelAttached11qt_metacallEN11QMetaObject4CallEiPPv@Qt_5_PRIVATE_API 5.6.1
 _ZN22QQmlWebChannelAttached11qt_metacastEPKc@Qt_5_PRIVATE_API 5.6.1
 _ZN22QQmlWebChannelAttached16staticMetaObjectE@Qt_5_PRIVATE_API 5.6.1
 _ZN22QQmlWebChannelAttached5setIdERK7QString@Qt_5_PRIVATE_API 5.6.1
 _ZN22QQmlWebChannelAttached9idChangedERK7QString@Qt_5_PRIVATE_API 5.6.1
 _ZN22QQmlWebChannelAttachedC1EP7QObject@Qt_5_PRIVATE_API 5.6.1
 _ZN22QQmlWebChannelAttachedC2EP7QObject@Qt_5_PRIVATE_API 5.6.1
 _ZN22QQmlWebChannelAttachedD0Ev@Qt_5_PRIVATE_API 5.6.1
 _ZN22QQmlWebChannelAttachedD1Ev@Qt_5_PRIVATE_API 5.6.1
 _ZN22QQmlWebChannelAttachedD2Ev@Qt_5_PRIVATE_API 5.6.1
 _ZN28QWebChannelAbstractTransport11qt_metacallEN11QMetaObject4CallEiPPv@Qt_5 5.6.1
 _ZN28QWebChannelAbstractTransport11qt_metacastEPKc@Qt_5 5.6.1
 _ZN28QWebChannelAbstractTransport15messageReceivedERK11QJsonObjectPS_@Qt_5 5.6.1
 _ZN28QWebChannelAbstractTransport16staticMetaObjectE@Qt_5 5.6.1
 _ZN28QWebChannelAbstractTransportC1EP7QObject@Qt_5 5.6.1
 _ZN28QWebChannelAbstractTransportC2EP7QObject@Qt_5 5.6.1
 _ZN28QWebChannelAbstractTransportD0Ev@Qt_5 5.6.1
 _ZN28QWebChannelAbstractTransportD1Ev@Qt_5 5.6.1
 _ZN28QWebChannelAbstractTransportD2Ev@Qt_5 5.6.1
 _ZNK11QWebChannel10metaObjectEv@Qt_5 5.6.1
 _ZNK11QWebChannel12blockUpdatesEv@Qt_5 5.6.1
 _ZNK11QWebChannel17registeredObjectsEv@Qt_5 5.6.1
 _ZNK14QQmlWebChannel10metaObjectEv@Qt_5 5.6.1
 _ZNK20QMetaObjectPublisher10metaObjectEv@Qt_5_PRIVATE_API 5.6.1
 _ZNK20QMetaObjectPublisher12unwrapObjectERK7QString@Qt_5_PRIVATE_API 5.7.1
 _ZNK20QMetaObjectPublisher16broadcastMessageERK11QJsonObject@Qt_5_PRIVATE_API 5.6.1
 _ZNK20QMetaObjectPublisher19deleteWrappedObjectEP7QObject@Qt_5_PRIVATE_API 5.6.1
 _ZNK20QMetaObjectPublisher9toVariantERK10QJsonValuei@Qt_5_PRIVATE_API 5.7.1
 _ZNK22QQmlWebChannelAttached10metaObjectEv@Qt_5_PRIVATE_API 5.6.1
 _ZNK22QQmlWebChannelAttached2idEv@Qt_5_PRIVATE_API 5.6.1
 _ZNK28QWebChannelAbstractTransport10metaObjectEv@Qt_5 5.6.1
 _ZTI11QWebChannel@Qt_5 5.6.1
 _ZTI14QQmlWebChannel@Qt_5 5.6.1
 _ZTI18QWebChannelPrivate@Qt_5_PRIVATE_API 5.6.1
 _ZTI20QMetaObjectPublisher@Qt_5_PRIVATE_API 5.6.1
 _ZTI22QQmlWebChannelAttached@Qt_5_PRIVATE_API 5.6.1
 _ZTI28QWebChannelAbstractTransport@Qt_5 5.6.1
 _ZTS11QWebChannel@Qt_5 5.6.1
 _ZTS14QQmlWebChannel@Qt_5 5.6.1
 _ZTS18QWebChannelPrivate@Qt_5_PRIVATE_API 5.6.1
 _ZTS20QMetaObjectPublisher@Qt_5_PRIVATE_API 5.6.1
 _ZTS22QQmlWebChannelAttached@Qt_5_PRIVATE_API 5.6.1
 _ZTS28QWebChannelAbstractTransport@Qt_5 5.6.1
 _ZTV11QWebChannel@Qt_5 5.6.1
 _ZTV14QQmlWebChannel@Qt_5 5.6.1
 _ZTV18QWebChannelPrivate@Qt_5_PRIVATE_API 5.6.1
 _ZTV20QMetaObjectPublisher@Qt_5_PRIVATE_API 5.6.1
 _ZTV22QQmlWebChannelAttached@Qt_5_PRIVATE_API 5.6.1
 _ZTV28QWebChannelAbstractTransport@Qt_5 5.6.1
